
EEE3096S_2022_Prac_3_ADCs_Interrupts_and_PWM_Student_Version.elf:     file format elf32-littlearm

Sections:
Idx Name          Size      VMA       LMA       File off  Algn
  0 .isr_vector   000000c0  08000000  08000000  00010000  2**0
                  CONTENTS, ALLOC, LOAD, READONLY, DATA
  1 .text         00004dd0  080000c0  080000c0  000100c0  2**2
                  CONTENTS, ALLOC, LOAD, READONLY, CODE
  2 .rodata       00000098  08004e90  08004e90  00014e90  2**2
                  CONTENTS, ALLOC, LOAD, READONLY, DATA
  3 .ARM.extab    00000000  08004f28  08004f28  00020074  2**0
                  CONTENTS
  4 .ARM          00000000  08004f28  08004f28  00020074  2**0
                  CONTENTS
  5 .preinit_array 00000000  08004f28  08004f28  00020074  2**0
                  CONTENTS, ALLOC, LOAD, DATA
  6 .init_array   00000004  08004f28  08004f28  00014f28  2**2
                  CONTENTS, ALLOC, LOAD, DATA
  7 .fini_array   00000004  08004f2c  08004f2c  00014f2c  2**2
                  CONTENTS, ALLOC, LOAD, DATA
  8 .data         00000074  20000000  08004f30  00020000  2**2
                  CONTENTS, ALLOC, LOAD, DATA
  9 .bss          000001dc  20000074  08004fa4  00020074  2**2
                  ALLOC
 10 ._user_heap_stack 00000600  20000250  08004fa4  00020250  2**0
                  ALLOC
 11 .ARM.attributes 00000028  00000000  00000000  00020074  2**0
                  CONTENTS, READONLY
 12 .debug_info   0000f692  00000000  00000000  0002009c  2**0
                  CONTENTS, READONLY, DEBUGGING, OCTETS
 13 .debug_abbrev 00002164  00000000  00000000  0002f72e  2**0
                  CONTENTS, READONLY, DEBUGGING, OCTETS
 14 .debug_aranges 00000d68  00000000  00000000  00031898  2**3
                  CONTENTS, READONLY, DEBUGGING, OCTETS
 15 .debug_ranges 00000c90  00000000  00000000  00032600  2**3
                  CONTENTS, READONLY, DEBUGGING, OCTETS
 16 .debug_macro  00012560  00000000  00000000  00033290  2**0
                  CONTENTS, READONLY, DEBUGGING, OCTETS
 17 .debug_line   00010398  00000000  00000000  000457f0  2**0
                  CONTENTS, READONLY, DEBUGGING, OCTETS
 18 .debug_str    00071f52  00000000  00000000  00055b88  2**0
                  CONTENTS, READONLY, DEBUGGING, OCTETS
 19 .comment      00000050  00000000  00000000  000c7ada  2**0
                  CONTENTS, READONLY
 20 .debug_frame  000033d0  00000000  00000000  000c7b2c  2**2
                  CONTENTS, READONLY, DEBUGGING, OCTETS

Disassembly of section .text:

080000c0 <__do_global_dtors_aux>:
 80000c0:	b510      	push	{r4, lr}
 80000c2:	4c06      	ldr	r4, [pc, #24]	; (80000dc <__do_global_dtors_aux+0x1c>)
 80000c4:	7823      	ldrb	r3, [r4, #0]
 80000c6:	2b00      	cmp	r3, #0
 80000c8:	d107      	bne.n	80000da <__do_global_dtors_aux+0x1a>
 80000ca:	4b05      	ldr	r3, [pc, #20]	; (80000e0 <__do_global_dtors_aux+0x20>)
 80000cc:	2b00      	cmp	r3, #0
 80000ce:	d002      	beq.n	80000d6 <__do_global_dtors_aux+0x16>
 80000d0:	4804      	ldr	r0, [pc, #16]	; (80000e4 <__do_global_dtors_aux+0x24>)
 80000d2:	e000      	b.n	80000d6 <__do_global_dtors_aux+0x16>
 80000d4:	bf00      	nop
 80000d6:	2301      	movs	r3, #1
 80000d8:	7023      	strb	r3, [r4, #0]
 80000da:	bd10      	pop	{r4, pc}
 80000dc:	20000074 	.word	0x20000074
 80000e0:	00000000 	.word	0x00000000
 80000e4:	08004e78 	.word	0x08004e78

080000e8 <frame_dummy>:
 80000e8:	4b04      	ldr	r3, [pc, #16]	; (80000fc <frame_dummy+0x14>)
 80000ea:	b510      	push	{r4, lr}
 80000ec:	2b00      	cmp	r3, #0
 80000ee:	d003      	beq.n	80000f8 <frame_dummy+0x10>
 80000f0:	4903      	ldr	r1, [pc, #12]	; (8000100 <frame_dummy+0x18>)
 80000f2:	4804      	ldr	r0, [pc, #16]	; (8000104 <frame_dummy+0x1c>)
 80000f4:	e000      	b.n	80000f8 <frame_dummy+0x10>
 80000f6:	bf00      	nop
 80000f8:	bd10      	pop	{r4, pc}
 80000fa:	46c0      	nop			; (mov r8, r8)
 80000fc:	00000000 	.word	0x00000000
 8000100:	20000078 	.word	0x20000078
 8000104:	08004e78 	.word	0x08004e78

08000108 <__gnu_thumb1_case_shi>:
 8000108:	b403      	push	{r0, r1}
 800010a:	4671      	mov	r1, lr
 800010c:	0849      	lsrs	r1, r1, #1
 800010e:	0040      	lsls	r0, r0, #1
 8000110:	0049      	lsls	r1, r1, #1
 8000112:	5e09      	ldrsh	r1, [r1, r0]
 8000114:	0049      	lsls	r1, r1, #1
 8000116:	448e      	add	lr, r1
 8000118:	bc03      	pop	{r0, r1}
 800011a:	4770      	bx	lr

0800011c <__udivsi3>:
 800011c:	2200      	movs	r2, #0
 800011e:	0843      	lsrs	r3, r0, #1
 8000120:	428b      	cmp	r3, r1
 8000122:	d374      	bcc.n	800020e <__udivsi3+0xf2>
 8000124:	0903      	lsrs	r3, r0, #4
 8000126:	428b      	cmp	r3, r1
 8000128:	d35f      	bcc.n	80001ea <__udivsi3+0xce>
 800012a:	0a03      	lsrs	r3, r0, #8
 800012c:	428b      	cmp	r3, r1
 800012e:	d344      	bcc.n	80001ba <__udivsi3+0x9e>
 8000130:	0b03      	lsrs	r3, r0, #12
 8000132:	428b      	cmp	r3, r1
 8000134:	d328      	bcc.n	8000188 <__udivsi3+0x6c>
 8000136:	0c03      	lsrs	r3, r0, #16
 8000138:	428b      	cmp	r3, r1
 800013a:	d30d      	bcc.n	8000158 <__udivsi3+0x3c>
 800013c:	22ff      	movs	r2, #255	; 0xff
 800013e:	0209      	lsls	r1, r1, #8
 8000140:	ba12      	rev	r2, r2
 8000142:	0c03      	lsrs	r3, r0, #16
 8000144:	428b      	cmp	r3, r1
 8000146:	d302      	bcc.n	800014e <__udivsi3+0x32>
 8000148:	1212      	asrs	r2, r2, #8
 800014a:	0209      	lsls	r1, r1, #8
 800014c:	d065      	beq.n	800021a <__udivsi3+0xfe>
 800014e:	0b03      	lsrs	r3, r0, #12
 8000150:	428b      	cmp	r3, r1
 8000152:	d319      	bcc.n	8000188 <__udivsi3+0x6c>
 8000154:	e000      	b.n	8000158 <__udivsi3+0x3c>
 8000156:	0a09      	lsrs	r1, r1, #8
 8000158:	0bc3      	lsrs	r3, r0, #15
 800015a:	428b      	cmp	r3, r1
 800015c:	d301      	bcc.n	8000162 <__udivsi3+0x46>
 800015e:	03cb      	lsls	r3, r1, #15
 8000160:	1ac0      	subs	r0, r0, r3
 8000162:	4152      	adcs	r2, r2
 8000164:	0b83      	lsrs	r3, r0, #14
 8000166:	428b      	cmp	r3, r1
 8000168:	d301      	bcc.n	800016e <__udivsi3+0x52>
 800016a:	038b      	lsls	r3, r1, #14
 800016c:	1ac0      	subs	r0, r0, r3
 800016e:	4152      	adcs	r2, r2
 8000170:	0b43      	lsrs	r3, r0, #13
 8000172:	428b      	cmp	r3, r1
 8000174:	d301      	bcc.n	800017a <__udivsi3+0x5e>
 8000176:	034b      	lsls	r3, r1, #13
 8000178:	1ac0      	subs	r0, r0, r3
 800017a:	4152      	adcs	r2, r2
 800017c:	0b03      	lsrs	r3, r0, #12
 800017e:	428b      	cmp	r3, r1
 8000180:	d301      	bcc.n	8000186 <__udivsi3+0x6a>
 8000182:	030b      	lsls	r3, r1, #12
 8000184:	1ac0      	subs	r0, r0, r3
 8000186:	4152      	adcs	r2, r2
 8000188:	0ac3      	lsrs	r3, r0, #11
 800018a:	428b      	cmp	r3, r1
 800018c:	d301      	bcc.n	8000192 <__udivsi3+0x76>
 800018e:	02cb      	lsls	r3, r1, #11
 8000190:	1ac0      	subs	r0, r0, r3
 8000192:	4152      	adcs	r2, r2
 8000194:	0a83      	lsrs	r3, r0, #10
 8000196:	428b      	cmp	r3, r1
 8000198:	d301      	bcc.n	800019e <__udivsi3+0x82>
 800019a:	028b      	lsls	r3, r1, #10
 800019c:	1ac0      	subs	r0, r0, r3
 800019e:	4152      	adcs	r2, r2
 80001a0:	0a43      	lsrs	r3, r0, #9
 80001a2:	428b      	cmp	r3, r1
 80001a4:	d301      	bcc.n	80001aa <__udivsi3+0x8e>
 80001a6:	024b      	lsls	r3, r1, #9
 80001a8:	1ac0      	subs	r0, r0, r3
 80001aa:	4152      	adcs	r2, r2
 80001ac:	0a03      	lsrs	r3, r0, #8
 80001ae:	428b      	cmp	r3, r1
 80001b0:	d301      	bcc.n	80001b6 <__udivsi3+0x9a>
 80001b2:	020b      	lsls	r3, r1, #8
 80001b4:	1ac0      	subs	r0, r0, r3
 80001b6:	4152      	adcs	r2, r2
 80001b8:	d2cd      	bcs.n	8000156 <__udivsi3+0x3a>
 80001ba:	09c3      	lsrs	r3, r0, #7
 80001bc:	428b      	cmp	r3, r1
 80001be:	d301      	bcc.n	80001c4 <__udivsi3+0xa8>
 80001c0:	01cb      	lsls	r3, r1, #7
 80001c2:	1ac0      	subs	r0, r0, r3
 80001c4:	4152      	adcs	r2, r2
 80001c6:	0983      	lsrs	r3, r0, #6
 80001c8:	428b      	cmp	r3, r1
 80001ca:	d301      	bcc.n	80001d0 <__udivsi3+0xb4>
 80001cc:	018b      	lsls	r3, r1, #6
 80001ce:	1ac0      	subs	r0, r0, r3
 80001d0:	4152      	adcs	r2, r2
 80001d2:	0943      	lsrs	r3, r0, #5
 80001d4:	428b      	cmp	r3, r1
 80001d6:	d301      	bcc.n	80001dc <__udivsi3+0xc0>
 80001d8:	014b      	lsls	r3, r1, #5
 80001da:	1ac0      	subs	r0, r0, r3
 80001dc:	4152      	adcs	r2, r2
 80001de:	0903      	lsrs	r3, r0, #4
 80001e0:	428b      	cmp	r3, r1
 80001e2:	d301      	bcc.n	80001e8 <__udivsi3+0xcc>
 80001e4:	010b      	lsls	r3, r1, #4
 80001e6:	1ac0      	subs	r0, r0, r3
 80001e8:	4152      	adcs	r2, r2
 80001ea:	08c3      	lsrs	r3, r0, #3
 80001ec:	428b      	cmp	r3, r1
 80001ee:	d301      	bcc.n	80001f4 <__udivsi3+0xd8>
 80001f0:	00cb      	lsls	r3, r1, #3
 80001f2:	1ac0      	subs	r0, r0, r3
 80001f4:	4152      	adcs	r2, r2
 80001f6:	0883      	lsrs	r3, r0, #2
 80001f8:	428b      	cmp	r3, r1
 80001fa:	d301      	bcc.n	8000200 <__udivsi3+0xe4>
 80001fc:	008b      	lsls	r3, r1, #2
 80001fe:	1ac0      	subs	r0, r0, r3
 8000200:	4152      	adcs	r2, r2
 8000202:	0843      	lsrs	r3, r0, #1
 8000204:	428b      	cmp	r3, r1
 8000206:	d301      	bcc.n	800020c <__udivsi3+0xf0>
 8000208:	004b      	lsls	r3, r1, #1
 800020a:	1ac0      	subs	r0, r0, r3
 800020c:	4152      	adcs	r2, r2
 800020e:	1a41      	subs	r1, r0, r1
 8000210:	d200      	bcs.n	8000214 <__udivsi3+0xf8>
 8000212:	4601      	mov	r1, r0
 8000214:	4152      	adcs	r2, r2
 8000216:	4610      	mov	r0, r2
 8000218:	4770      	bx	lr
 800021a:	e7ff      	b.n	800021c <__udivsi3+0x100>
 800021c:	b501      	push	{r0, lr}
 800021e:	2000      	movs	r0, #0
 8000220:	f000 f806 	bl	8000230 <__aeabi_idiv0>
 8000224:	bd02      	pop	{r1, pc}
 8000226:	46c0      	nop			; (mov r8, r8)

08000228 <__aeabi_uidivmod>:
 8000228:	2900      	cmp	r1, #0
 800022a:	d0f7      	beq.n	800021c <__udivsi3+0x100>
 800022c:	e776      	b.n	800011c <__udivsi3>
 800022e:	4770      	bx	lr

08000230 <__aeabi_idiv0>:
 8000230:	4770      	bx	lr
 8000232:	46c0      	nop			; (mov r8, r8)

08000234 <main>:
/**
  * @brief  The application entry point.
  * @retval int
  */
int main(void)
{
 8000234:	b580      	push	{r7, lr}
 8000236:	b08c      	sub	sp, #48	; 0x30
 8000238:	af00      	add	r7, sp, #0
  /* USER CODE END 1 */

  /* MCU Configuration--------------------------------------------------------*/

  /* Reset of all peripherals, Initializes the Flash interface and the Systick. */
  HAL_Init();
 800023a:	f000 fceb 	bl	8000c14 <HAL_Init>
  /* USER CODE BEGIN Init */

  /* USER CODE END Init */

  /* Configure the system clock */
  SystemClock_Config();
 800023e:	f000 f841 	bl	80002c4 <SystemClock_Config>
  /* USER CODE BEGIN SysInit */

  /* USER CODE END SysInit */

  /* Initialize all configured peripherals */
  MX_GPIO_Init();
 8000242:	f000 f9c1 	bl	80005c8 <MX_GPIO_Init>
  MX_DMA_Init();
 8000246:	f000 f999 	bl	800057c <MX_DMA_Init>
  MX_USART2_UART_Init();
 800024a:	f000 f967 	bl	800051c <MX_USART2_UART_Init>
  MX_ADC_Init();
 800024e:	f000 f889 	bl	8000364 <MX_ADC_Init>
  MX_TIM3_Init();
 8000252:	f000 f8e3 	bl	800041c <MX_TIM3_Init>
  //Create variables needed in while loop
  uint32_t val;
  uint32_t ccr_val;
  char buffer[33];

  HAL_TIM_PWM_Start(&htim3, TIM_CHANNEL_4); //Start the PWM on TIM3 Channel 4 (Green LED)
 8000256:	4b16      	ldr	r3, [pc, #88]	; (80002b0 <main+0x7c>)
 8000258:	210c      	movs	r1, #12
 800025a:	0018      	movs	r0, r3
 800025c:	f002 fbe8 	bl	8002a30 <HAL_TIM_PWM_Start>

  /* Infinite loop */
  /* USER CODE BEGIN WHILE */
  while (1)
  {
	  HAL_GPIO_TogglePin(GPIOC, GPIO_PIN_8); // Toggle blue LED
 8000260:	2380      	movs	r3, #128	; 0x80
 8000262:	005b      	lsls	r3, r3, #1
 8000264:	4a13      	ldr	r2, [pc, #76]	; (80002b4 <main+0x80>)
 8000266:	0019      	movs	r1, r3
 8000268:	0010      	movs	r0, r2
 800026a:	f001 fe8c 	bl	8001f86 <HAL_GPIO_TogglePin>
	  //TO DO:
	  //TASK 2
	  //Test your pollADC function and display via UART
	  val = pollADC();
 800026e:	f000 fa6f 	bl	8000750 <pollADC>
 8000272:	0003      	movs	r3, r0
 8000274:	62fb      	str	r3, [r7, #44]	; 0x2c
	  ccr_val = ADCtoCRR(val);
 8000276:	6afb      	ldr	r3, [r7, #44]	; 0x2c
 8000278:	0018      	movs	r0, r3
 800027a:	f000 fa87 	bl	800078c <ADCtoCRR>
 800027e:	0003      	movs	r3, r0
 8000280:	62bb      	str	r3, [r7, #40]	; 0x28
	  sprintf(buffer, "ADC reading: %d CCR: %d\n\n", val, ccr_val);
 8000282:	6abb      	ldr	r3, [r7, #40]	; 0x28
 8000284:	6afa      	ldr	r2, [r7, #44]	; 0x2c
 8000286:	490c      	ldr	r1, [pc, #48]	; (80002b8 <main+0x84>)
 8000288:	1d38      	adds	r0, r7, #4
 800028a:	f004 f98b 	bl	80045a4 <siprintf>
	  HAL_UART_Transmit(&huart2, buffer, sizeof(buffer), 1000);
 800028e:	23fa      	movs	r3, #250	; 0xfa
 8000290:	009b      	lsls	r3, r3, #2
 8000292:	1d39      	adds	r1, r7, #4
 8000294:	4809      	ldr	r0, [pc, #36]	; (80002bc <main+0x88>)
 8000296:	2221      	movs	r2, #33	; 0x21
 8000298:	f003 fa08 	bl	80036ac <HAL_UART_Transmit>
	  //Test your ADCtoCRR function. Display CRR value via UART

	  //TASK 4
	  //Complete rest of implementation

	  __HAL_TIM_SetCompare(&htim3, TIM_CHANNEL_4, ccr_val);
 800029c:	4b04      	ldr	r3, [pc, #16]	; (80002b0 <main+0x7c>)
 800029e:	681b      	ldr	r3, [r3, #0]
 80002a0:	6aba      	ldr	r2, [r7, #40]	; 0x28
 80002a2:	641a      	str	r2, [r3, #64]	; 0x40

	  HAL_Delay(delay); // wait for 500 ms
 80002a4:	4b06      	ldr	r3, [pc, #24]	; (80002c0 <main+0x8c>)
 80002a6:	681b      	ldr	r3, [r3, #0]
 80002a8:	0018      	movs	r0, r3
 80002aa:	f000 fd17 	bl	8000cdc <HAL_Delay>
  {
 80002ae:	e7d7      	b.n	8000260 <main+0x2c>
 80002b0:	20000114 	.word	0x20000114
 80002b4:	48000800 	.word	0x48000800
 80002b8:	08004e90 	.word	0x08004e90
 80002bc:	2000015c 	.word	0x2000015c
 80002c0:	20000000 	.word	0x20000000

080002c4 <SystemClock_Config>:
/**
  * @brief System Clock Configuration
  * @retval None
  */
void SystemClock_Config(void)
{
 80002c4:	b590      	push	{r4, r7, lr}
 80002c6:	b091      	sub	sp, #68	; 0x44
 80002c8:	af00      	add	r7, sp, #0
  RCC_OscInitTypeDef RCC_OscInitStruct = {0};
 80002ca:	2410      	movs	r4, #16
 80002cc:	193b      	adds	r3, r7, r4
 80002ce:	0018      	movs	r0, r3
 80002d0:	2330      	movs	r3, #48	; 0x30
 80002d2:	001a      	movs	r2, r3
 80002d4:	2100      	movs	r1, #0
 80002d6:	f004 f95d 	bl	8004594 <memset>
  RCC_ClkInitTypeDef RCC_ClkInitStruct = {0};
 80002da:	003b      	movs	r3, r7
 80002dc:	0018      	movs	r0, r3
 80002de:	2310      	movs	r3, #16
 80002e0:	001a      	movs	r2, r3
 80002e2:	2100      	movs	r1, #0
 80002e4:	f004 f956 	bl	8004594 <memset>

  /** Initializes the RCC Oscillators according to the specified parameters
  * in the RCC_OscInitTypeDef structure.
  */
  RCC_OscInitStruct.OscillatorType = RCC_OSCILLATORTYPE_HSI|RCC_OSCILLATORTYPE_HSI14;
 80002e8:	0021      	movs	r1, r4
 80002ea:	187b      	adds	r3, r7, r1
 80002ec:	2212      	movs	r2, #18
 80002ee:	601a      	str	r2, [r3, #0]
  RCC_OscInitStruct.HSIState = RCC_HSI_ON;
 80002f0:	187b      	adds	r3, r7, r1
 80002f2:	2201      	movs	r2, #1
 80002f4:	60da      	str	r2, [r3, #12]
  RCC_OscInitStruct.HSI14State = RCC_HSI14_ON;
 80002f6:	187b      	adds	r3, r7, r1
 80002f8:	2201      	movs	r2, #1
 80002fa:	615a      	str	r2, [r3, #20]
  RCC_OscInitStruct.HSICalibrationValue = RCC_HSICALIBRATION_DEFAULT;
 80002fc:	187b      	adds	r3, r7, r1
 80002fe:	2210      	movs	r2, #16
 8000300:	611a      	str	r2, [r3, #16]
  RCC_OscInitStruct.HSI14CalibrationValue = 16;
 8000302:	187b      	adds	r3, r7, r1
 8000304:	2210      	movs	r2, #16
 8000306:	619a      	str	r2, [r3, #24]
  RCC_OscInitStruct.PLL.PLLState = RCC_PLL_ON;
 8000308:	187b      	adds	r3, r7, r1
 800030a:	2202      	movs	r2, #2
 800030c:	621a      	str	r2, [r3, #32]
  RCC_OscInitStruct.PLL.PLLSource = RCC_PLLSOURCE_HSI;
 800030e:	187b      	adds	r3, r7, r1
 8000310:	2200      	movs	r2, #0
 8000312:	625a      	str	r2, [r3, #36]	; 0x24
  RCC_OscInitStruct.PLL.PLLMUL = RCC_PLL_MUL12;
 8000314:	187b      	adds	r3, r7, r1
 8000316:	22a0      	movs	r2, #160	; 0xa0
 8000318:	0392      	lsls	r2, r2, #14
 800031a:	629a      	str	r2, [r3, #40]	; 0x28
  RCC_OscInitStruct.PLL.PREDIV = RCC_PREDIV_DIV1;
 800031c:	187b      	adds	r3, r7, r1
 800031e:	2200      	movs	r2, #0
 8000320:	62da      	str	r2, [r3, #44]	; 0x2c
  if (HAL_RCC_OscConfig(&RCC_OscInitStruct) != HAL_OK)
 8000322:	187b      	adds	r3, r7, r1
 8000324:	0018      	movs	r0, r3
 8000326:	f001 fe6f 	bl	8002008 <HAL_RCC_OscConfig>
 800032a:	1e03      	subs	r3, r0, #0
 800032c:	d001      	beq.n	8000332 <SystemClock_Config+0x6e>
  {
    Error_Handler();
 800032e:	f000 fa43 	bl	80007b8 <Error_Handler>
  }

  /** Initializes the CPU, AHB and APB buses clocks
  */
  RCC_ClkInitStruct.ClockType = RCC_CLOCKTYPE_HCLK|RCC_CLOCKTYPE_SYSCLK
 8000332:	003b      	movs	r3, r7
 8000334:	2207      	movs	r2, #7
 8000336:	601a      	str	r2, [r3, #0]
                              |RCC_CLOCKTYPE_PCLK1;
  RCC_ClkInitStruct.SYSCLKSource = RCC_SYSCLKSOURCE_PLLCLK;
 8000338:	003b      	movs	r3, r7
 800033a:	2202      	movs	r2, #2
 800033c:	605a      	str	r2, [r3, #4]
  RCC_ClkInitStruct.AHBCLKDivider = RCC_SYSCLK_DIV1;
 800033e:	003b      	movs	r3, r7
 8000340:	2200      	movs	r2, #0
 8000342:	609a      	str	r2, [r3, #8]
  RCC_ClkInitStruct.APB1CLKDivider = RCC_HCLK_DIV1;
 8000344:	003b      	movs	r3, r7
 8000346:	2200      	movs	r2, #0
 8000348:	60da      	str	r2, [r3, #12]

  if (HAL_RCC_ClockConfig(&RCC_ClkInitStruct, FLASH_LATENCY_1) != HAL_OK)
 800034a:	003b      	movs	r3, r7
 800034c:	2101      	movs	r1, #1
 800034e:	0018      	movs	r0, r3
 8000350:	f002 f974 	bl	800263c <HAL_RCC_ClockConfig>
 8000354:	1e03      	subs	r3, r0, #0
 8000356:	d001      	beq.n	800035c <SystemClock_Config+0x98>
  {
    Error_Handler();
 8000358:	f000 fa2e 	bl	80007b8 <Error_Handler>
  }
}
 800035c:	46c0      	nop			; (mov r8, r8)
 800035e:	46bd      	mov	sp, r7
 8000360:	b011      	add	sp, #68	; 0x44
 8000362:	bd90      	pop	{r4, r7, pc}

08000364 <MX_ADC_Init>:
  * @brief ADC Initialization Function
  * @param None
  * @retval None
  */
static void MX_ADC_Init(void)
{
 8000364:	b580      	push	{r7, lr}
 8000366:	b084      	sub	sp, #16
 8000368:	af00      	add	r7, sp, #0

  /* USER CODE BEGIN ADC_Init 0 */

  /* USER CODE END ADC_Init 0 */

  ADC_ChannelConfTypeDef sConfig = {0};
 800036a:	1d3b      	adds	r3, r7, #4
 800036c:	0018      	movs	r0, r3
 800036e:	230c      	movs	r3, #12
 8000370:	001a      	movs	r2, r3
 8000372:	2100      	movs	r1, #0
 8000374:	f004 f90e 	bl	8004594 <memset>

  /* USER CODE END ADC_Init 1 */

  /** Configure the global features of the ADC (Clock, Resolution, Data Alignment and number of conversion)
  */
  hadc.Instance = ADC1;
 8000378:	4b26      	ldr	r3, [pc, #152]	; (8000414 <MX_ADC_Init+0xb0>)
 800037a:	4a27      	ldr	r2, [pc, #156]	; (8000418 <MX_ADC_Init+0xb4>)
 800037c:	601a      	str	r2, [r3, #0]
  hadc.Init.ClockPrescaler = ADC_CLOCK_ASYNC_DIV1;
 800037e:	4b25      	ldr	r3, [pc, #148]	; (8000414 <MX_ADC_Init+0xb0>)
 8000380:	2200      	movs	r2, #0
 8000382:	605a      	str	r2, [r3, #4]
  hadc.Init.Resolution = ADC_RESOLUTION_12B;
 8000384:	4b23      	ldr	r3, [pc, #140]	; (8000414 <MX_ADC_Init+0xb0>)
 8000386:	2200      	movs	r2, #0
 8000388:	609a      	str	r2, [r3, #8]
  hadc.Init.DataAlign = ADC_DATAALIGN_RIGHT;
 800038a:	4b22      	ldr	r3, [pc, #136]	; (8000414 <MX_ADC_Init+0xb0>)
 800038c:	2200      	movs	r2, #0
 800038e:	60da      	str	r2, [r3, #12]
  hadc.Init.ScanConvMode = ADC_SCAN_DIRECTION_FORWARD;
 8000390:	4b20      	ldr	r3, [pc, #128]	; (8000414 <MX_ADC_Init+0xb0>)
 8000392:	2201      	movs	r2, #1
 8000394:	611a      	str	r2, [r3, #16]
  hadc.Init.EOCSelection = ADC_EOC_SINGLE_CONV;
 8000396:	4b1f      	ldr	r3, [pc, #124]	; (8000414 <MX_ADC_Init+0xb0>)
 8000398:	2204      	movs	r2, #4
 800039a:	615a      	str	r2, [r3, #20]
  hadc.Init.LowPowerAutoWait = DISABLE;
 800039c:	4b1d      	ldr	r3, [pc, #116]	; (8000414 <MX_ADC_Init+0xb0>)
 800039e:	2200      	movs	r2, #0
 80003a0:	761a      	strb	r2, [r3, #24]
  hadc.Init.LowPowerAutoPowerOff = DISABLE;
 80003a2:	4b1c      	ldr	r3, [pc, #112]	; (8000414 <MX_ADC_Init+0xb0>)
 80003a4:	2200      	movs	r2, #0
 80003a6:	765a      	strb	r2, [r3, #25]
  hadc.Init.ContinuousConvMode = DISABLE;
 80003a8:	4b1a      	ldr	r3, [pc, #104]	; (8000414 <MX_ADC_Init+0xb0>)
 80003aa:	2200      	movs	r2, #0
 80003ac:	769a      	strb	r2, [r3, #26]
  hadc.Init.DiscontinuousConvMode = DISABLE;
 80003ae:	4b19      	ldr	r3, [pc, #100]	; (8000414 <MX_ADC_Init+0xb0>)
 80003b0:	2200      	movs	r2, #0
 80003b2:	76da      	strb	r2, [r3, #27]
  hadc.Init.ExternalTrigConv = ADC_SOFTWARE_START;
 80003b4:	4b17      	ldr	r3, [pc, #92]	; (8000414 <MX_ADC_Init+0xb0>)
 80003b6:	22c2      	movs	r2, #194	; 0xc2
 80003b8:	32ff      	adds	r2, #255	; 0xff
 80003ba:	61da      	str	r2, [r3, #28]
  hadc.Init.ExternalTrigConvEdge = ADC_EXTERNALTRIGCONVEDGE_NONE;
 80003bc:	4b15      	ldr	r3, [pc, #84]	; (8000414 <MX_ADC_Init+0xb0>)
 80003be:	2200      	movs	r2, #0
 80003c0:	621a      	str	r2, [r3, #32]
  hadc.Init.DMAContinuousRequests = DISABLE;
 80003c2:	4b14      	ldr	r3, [pc, #80]	; (8000414 <MX_ADC_Init+0xb0>)
 80003c4:	2224      	movs	r2, #36	; 0x24
 80003c6:	2100      	movs	r1, #0
 80003c8:	5499      	strb	r1, [r3, r2]
  hadc.Init.Overrun = ADC_OVR_DATA_PRESERVED;
 80003ca:	4b12      	ldr	r3, [pc, #72]	; (8000414 <MX_ADC_Init+0xb0>)
 80003cc:	2201      	movs	r2, #1
 80003ce:	629a      	str	r2, [r3, #40]	; 0x28
  if (HAL_ADC_Init(&hadc) != HAL_OK)
 80003d0:	4b10      	ldr	r3, [pc, #64]	; (8000414 <MX_ADC_Init+0xb0>)
 80003d2:	0018      	movs	r0, r3
 80003d4:	f000 fca6 	bl	8000d24 <HAL_ADC_Init>
 80003d8:	1e03      	subs	r3, r0, #0
 80003da:	d001      	beq.n	80003e0 <MX_ADC_Init+0x7c>
  {
    Error_Handler();
 80003dc:	f000 f9ec 	bl	80007b8 <Error_Handler>
  }

  /** Configure for the selected ADC regular channel to be converted.
  */
  sConfig.Channel = ADC_CHANNEL_7;
 80003e0:	1d3b      	adds	r3, r7, #4
 80003e2:	2207      	movs	r2, #7
 80003e4:	601a      	str	r2, [r3, #0]
  sConfig.Rank = ADC_RANK_CHANNEL_NUMBER;
 80003e6:	1d3b      	adds	r3, r7, #4
 80003e8:	2280      	movs	r2, #128	; 0x80
 80003ea:	0152      	lsls	r2, r2, #5
 80003ec:	605a      	str	r2, [r3, #4]
  sConfig.SamplingTime = ADC_SAMPLETIME_1CYCLE_5;
 80003ee:	1d3b      	adds	r3, r7, #4
 80003f0:	2280      	movs	r2, #128	; 0x80
 80003f2:	0552      	lsls	r2, r2, #21
 80003f4:	609a      	str	r2, [r3, #8]
  if (HAL_ADC_ConfigChannel(&hadc, &sConfig) != HAL_OK)
 80003f6:	1d3a      	adds	r2, r7, #4
 80003f8:	4b06      	ldr	r3, [pc, #24]	; (8000414 <MX_ADC_Init+0xb0>)
 80003fa:	0011      	movs	r1, r2
 80003fc:	0018      	movs	r0, r3
 80003fe:	f000 ff99 	bl	8001334 <HAL_ADC_ConfigChannel>
 8000402:	1e03      	subs	r3, r0, #0
 8000404:	d001      	beq.n	800040a <MX_ADC_Init+0xa6>
  {
    Error_Handler();
 8000406:	f000 f9d7 	bl	80007b8 <Error_Handler>
  }
  /* USER CODE BEGIN ADC_Init 2 */

  /* USER CODE END ADC_Init 2 */

}
 800040a:	46c0      	nop			; (mov r8, r8)
 800040c:	46bd      	mov	sp, r7
 800040e:	b004      	add	sp, #16
 8000410:	bd80      	pop	{r7, pc}
 8000412:	46c0      	nop			; (mov r8, r8)
 8000414:	20000090 	.word	0x20000090
 8000418:	40012400 	.word	0x40012400

0800041c <MX_TIM3_Init>:
  * @brief TIM3 Initialization Function
  * @param None
  * @retval None
  */
static void MX_TIM3_Init(void)
{
 800041c:	b580      	push	{r7, lr}
 800041e:	b08e      	sub	sp, #56	; 0x38
 8000420:	af00      	add	r7, sp, #0

  /* USER CODE BEGIN TIM3_Init 0 */

  /* USER CODE END TIM3_Init 0 */

  TIM_ClockConfigTypeDef sClockSourceConfig = {0};
 8000422:	2328      	movs	r3, #40	; 0x28
 8000424:	18fb      	adds	r3, r7, r3
 8000426:	0018      	movs	r0, r3
 8000428:	2310      	movs	r3, #16
 800042a:	001a      	movs	r2, r3
 800042c:	2100      	movs	r1, #0
 800042e:	f004 f8b1 	bl	8004594 <memset>
  TIM_MasterConfigTypeDef sMasterConfig = {0};
 8000432:	2320      	movs	r3, #32
 8000434:	18fb      	adds	r3, r7, r3
 8000436:	0018      	movs	r0, r3
 8000438:	2308      	movs	r3, #8
 800043a:	001a      	movs	r2, r3
 800043c:	2100      	movs	r1, #0
 800043e:	f004 f8a9 	bl	8004594 <memset>
  TIM_OC_InitTypeDef sConfigOC = {0};
 8000442:	1d3b      	adds	r3, r7, #4
 8000444:	0018      	movs	r0, r3
 8000446:	231c      	movs	r3, #28
 8000448:	001a      	movs	r2, r3
 800044a:	2100      	movs	r1, #0
 800044c:	f004 f8a2 	bl	8004594 <memset>

  /* USER CODE BEGIN TIM3_Init 1 */

  /* USER CODE END TIM3_Init 1 */
  htim3.Instance = TIM3;
 8000450:	4b2f      	ldr	r3, [pc, #188]	; (8000510 <MX_TIM3_Init+0xf4>)
 8000452:	4a30      	ldr	r2, [pc, #192]	; (8000514 <MX_TIM3_Init+0xf8>)
 8000454:	601a      	str	r2, [r3, #0]
  htim3.Init.Prescaler = 0;
 8000456:	4b2e      	ldr	r3, [pc, #184]	; (8000510 <MX_TIM3_Init+0xf4>)
 8000458:	2200      	movs	r2, #0
 800045a:	605a      	str	r2, [r3, #4]
  htim3.Init.CounterMode = TIM_COUNTERMODE_UP;
 800045c:	4b2c      	ldr	r3, [pc, #176]	; (8000510 <MX_TIM3_Init+0xf4>)
 800045e:	2200      	movs	r2, #0
 8000460:	609a      	str	r2, [r3, #8]
  htim3.Init.Period = 47999;
 8000462:	4b2b      	ldr	r3, [pc, #172]	; (8000510 <MX_TIM3_Init+0xf4>)
 8000464:	4a2c      	ldr	r2, [pc, #176]	; (8000518 <MX_TIM3_Init+0xfc>)
 8000466:	60da      	str	r2, [r3, #12]
  htim3.Init.ClockDivision = TIM_CLOCKDIVISION_DIV1;
 8000468:	4b29      	ldr	r3, [pc, #164]	; (8000510 <MX_TIM3_Init+0xf4>)
 800046a:	2200      	movs	r2, #0
 800046c:	611a      	str	r2, [r3, #16]
  htim3.Init.AutoReloadPreload = TIM_AUTORELOAD_PRELOAD_ENABLE;
 800046e:	4b28      	ldr	r3, [pc, #160]	; (8000510 <MX_TIM3_Init+0xf4>)
 8000470:	2280      	movs	r2, #128	; 0x80
 8000472:	619a      	str	r2, [r3, #24]
  if (HAL_TIM_Base_Init(&htim3) != HAL_OK)
 8000474:	4b26      	ldr	r3, [pc, #152]	; (8000510 <MX_TIM3_Init+0xf4>)
 8000476:	0018      	movs	r0, r3
 8000478:	f002 fa32 	bl	80028e0 <HAL_TIM_Base_Init>
 800047c:	1e03      	subs	r3, r0, #0
 800047e:	d001      	beq.n	8000484 <MX_TIM3_Init+0x68>
  {
    Error_Handler();
 8000480:	f000 f99a 	bl	80007b8 <Error_Handler>
  }
  sClockSourceConfig.ClockSource = TIM_CLOCKSOURCE_INTERNAL;
 8000484:	2128      	movs	r1, #40	; 0x28
 8000486:	187b      	adds	r3, r7, r1
 8000488:	2280      	movs	r2, #128	; 0x80
 800048a:	0152      	lsls	r2, r2, #5
 800048c:	601a      	str	r2, [r3, #0]
  if (HAL_TIM_ConfigClockSource(&htim3, &sClockSourceConfig) != HAL_OK)
 800048e:	187a      	adds	r2, r7, r1
 8000490:	4b1f      	ldr	r3, [pc, #124]	; (8000510 <MX_TIM3_Init+0xf4>)
 8000492:	0011      	movs	r1, r2
 8000494:	0018      	movs	r0, r3
 8000496:	f002 fc49 	bl	8002d2c <HAL_TIM_ConfigClockSource>
 800049a:	1e03      	subs	r3, r0, #0
 800049c:	d001      	beq.n	80004a2 <MX_TIM3_Init+0x86>
  {
    Error_Handler();
 800049e:	f000 f98b 	bl	80007b8 <Error_Handler>
  }
  if (HAL_TIM_PWM_Init(&htim3) != HAL_OK)
 80004a2:	4b1b      	ldr	r3, [pc, #108]	; (8000510 <MX_TIM3_Init+0xf4>)
 80004a4:	0018      	movs	r0, r3
 80004a6:	f002 fa6b 	bl	8002980 <HAL_TIM_PWM_Init>
 80004aa:	1e03      	subs	r3, r0, #0
 80004ac:	d001      	beq.n	80004b2 <MX_TIM3_Init+0x96>
  {
    Error_Handler();
 80004ae:	f000 f983 	bl	80007b8 <Error_Handler>
  }
  sMasterConfig.MasterOutputTrigger = TIM_TRGO_RESET;
 80004b2:	2120      	movs	r1, #32
 80004b4:	187b      	adds	r3, r7, r1
 80004b6:	2200      	movs	r2, #0
 80004b8:	601a      	str	r2, [r3, #0]
  sMasterConfig.MasterSlaveMode = TIM_MASTERSLAVEMODE_DISABLE;
 80004ba:	187b      	adds	r3, r7, r1
 80004bc:	2200      	movs	r2, #0
 80004be:	605a      	str	r2, [r3, #4]
  if (HAL_TIMEx_MasterConfigSynchronization(&htim3, &sMasterConfig) != HAL_OK)
 80004c0:	187a      	adds	r2, r7, r1
 80004c2:	4b13      	ldr	r3, [pc, #76]	; (8000510 <MX_TIM3_Init+0xf4>)
 80004c4:	0011      	movs	r1, r2
 80004c6:	0018      	movs	r0, r3
 80004c8:	f003 f83e 	bl	8003548 <HAL_TIMEx_MasterConfigSynchronization>
 80004cc:	1e03      	subs	r3, r0, #0
 80004ce:	d001      	beq.n	80004d4 <MX_TIM3_Init+0xb8>
  {
    Error_Handler();
 80004d0:	f000 f972 	bl	80007b8 <Error_Handler>
  }
  sConfigOC.OCMode = TIM_OCMODE_PWM1;
 80004d4:	1d3b      	adds	r3, r7, #4
 80004d6:	2260      	movs	r2, #96	; 0x60
 80004d8:	601a      	str	r2, [r3, #0]
  sConfigOC.Pulse = 0;
 80004da:	1d3b      	adds	r3, r7, #4
 80004dc:	2200      	movs	r2, #0
 80004de:	605a      	str	r2, [r3, #4]
  sConfigOC.OCPolarity = TIM_OCPOLARITY_HIGH;
 80004e0:	1d3b      	adds	r3, r7, #4
 80004e2:	2200      	movs	r2, #0
 80004e4:	609a      	str	r2, [r3, #8]
  sConfigOC.OCFastMode = TIM_OCFAST_DISABLE;
 80004e6:	1d3b      	adds	r3, r7, #4
 80004e8:	2200      	movs	r2, #0
 80004ea:	611a      	str	r2, [r3, #16]
  if (HAL_TIM_PWM_ConfigChannel(&htim3, &sConfigOC, TIM_CHANNEL_4) != HAL_OK)
 80004ec:	1d39      	adds	r1, r7, #4
 80004ee:	4b08      	ldr	r3, [pc, #32]	; (8000510 <MX_TIM3_Init+0xf4>)
 80004f0:	220c      	movs	r2, #12
 80004f2:	0018      	movs	r0, r3
 80004f4:	f002 fb54 	bl	8002ba0 <HAL_TIM_PWM_ConfigChannel>
 80004f8:	1e03      	subs	r3, r0, #0
 80004fa:	d001      	beq.n	8000500 <MX_TIM3_Init+0xe4>
  {
    Error_Handler();
 80004fc:	f000 f95c 	bl	80007b8 <Error_Handler>
  }
  /* USER CODE BEGIN TIM3_Init 2 */

  /* USER CODE END TIM3_Init 2 */
  HAL_TIM_MspPostInit(&htim3);
 8000500:	4b03      	ldr	r3, [pc, #12]	; (8000510 <MX_TIM3_Init+0xf4>)
 8000502:	0018      	movs	r0, r3
 8000504:	f000 fa1a 	bl	800093c <HAL_TIM_MspPostInit>

}
 8000508:	46c0      	nop			; (mov r8, r8)
 800050a:	46bd      	mov	sp, r7
 800050c:	b00e      	add	sp, #56	; 0x38
 800050e:	bd80      	pop	{r7, pc}
 8000510:	20000114 	.word	0x20000114
 8000514:	40000400 	.word	0x40000400
 8000518:	0000bb7f 	.word	0x0000bb7f

0800051c <MX_USART2_UART_Init>:
  * @brief USART2 Initialization Function
  * @param None
  * @retval None
  */
static void MX_USART2_UART_Init(void)
{
 800051c:	b580      	push	{r7, lr}
 800051e:	af00      	add	r7, sp, #0
  /* USER CODE END USART2_Init 0 */

  /* USER CODE BEGIN USART2_Init 1 */

  /* USER CODE END USART2_Init 1 */
  huart2.Instance = USART2;
 8000520:	4b14      	ldr	r3, [pc, #80]	; (8000574 <MX_USART2_UART_Init+0x58>)
 8000522:	4a15      	ldr	r2, [pc, #84]	; (8000578 <MX_USART2_UART_Init+0x5c>)
 8000524:	601a      	str	r2, [r3, #0]
  huart2.Init.BaudRate = 9600;
 8000526:	4b13      	ldr	r3, [pc, #76]	; (8000574 <MX_USART2_UART_Init+0x58>)
 8000528:	2296      	movs	r2, #150	; 0x96
 800052a:	0192      	lsls	r2, r2, #6
 800052c:	605a      	str	r2, [r3, #4]
  huart2.Init.WordLength = UART_WORDLENGTH_8B;
 800052e:	4b11      	ldr	r3, [pc, #68]	; (8000574 <MX_USART2_UART_Init+0x58>)
 8000530:	2200      	movs	r2, #0
 8000532:	609a      	str	r2, [r3, #8]
  huart2.Init.StopBits = UART_STOPBITS_1;
 8000534:	4b0f      	ldr	r3, [pc, #60]	; (8000574 <MX_USART2_UART_Init+0x58>)
 8000536:	2200      	movs	r2, #0
 8000538:	60da      	str	r2, [r3, #12]
  huart2.Init.Parity = UART_PARITY_NONE;
 800053a:	4b0e      	ldr	r3, [pc, #56]	; (8000574 <MX_USART2_UART_Init+0x58>)
 800053c:	2200      	movs	r2, #0
 800053e:	611a      	str	r2, [r3, #16]
  huart2.Init.Mode = UART_MODE_TX_RX;
 8000540:	4b0c      	ldr	r3, [pc, #48]	; (8000574 <MX_USART2_UART_Init+0x58>)
 8000542:	220c      	movs	r2, #12
 8000544:	615a      	str	r2, [r3, #20]
  huart2.Init.HwFlowCtl = UART_HWCONTROL_NONE;
 8000546:	4b0b      	ldr	r3, [pc, #44]	; (8000574 <MX_USART2_UART_Init+0x58>)
 8000548:	2200      	movs	r2, #0
 800054a:	619a      	str	r2, [r3, #24]
  huart2.Init.OverSampling = UART_OVERSAMPLING_16;
 800054c:	4b09      	ldr	r3, [pc, #36]	; (8000574 <MX_USART2_UART_Init+0x58>)
 800054e:	2200      	movs	r2, #0
 8000550:	61da      	str	r2, [r3, #28]
  huart2.Init.OneBitSampling = UART_ONE_BIT_SAMPLE_DISABLE;
 8000552:	4b08      	ldr	r3, [pc, #32]	; (8000574 <MX_USART2_UART_Init+0x58>)
 8000554:	2200      	movs	r2, #0
 8000556:	621a      	str	r2, [r3, #32]
  huart2.AdvancedInit.AdvFeatureInit = UART_ADVFEATURE_NO_INIT;
 8000558:	4b06      	ldr	r3, [pc, #24]	; (8000574 <MX_USART2_UART_Init+0x58>)
 800055a:	2200      	movs	r2, #0
 800055c:	625a      	str	r2, [r3, #36]	; 0x24
  if (HAL_UART_Init(&huart2) != HAL_OK)
 800055e:	4b05      	ldr	r3, [pc, #20]	; (8000574 <MX_USART2_UART_Init+0x58>)
 8000560:	0018      	movs	r0, r3
 8000562:	f003 f84f 	bl	8003604 <HAL_UART_Init>
 8000566:	1e03      	subs	r3, r0, #0
 8000568:	d001      	beq.n	800056e <MX_USART2_UART_Init+0x52>
  {
    Error_Handler();
 800056a:	f000 f925 	bl	80007b8 <Error_Handler>
  }
  /* USER CODE BEGIN USART2_Init 2 */

  /* USER CODE END USART2_Init 2 */

}
 800056e:	46c0      	nop			; (mov r8, r8)
 8000570:	46bd      	mov	sp, r7
 8000572:	bd80      	pop	{r7, pc}
 8000574:	2000015c 	.word	0x2000015c
 8000578:	40004400 	.word	0x40004400

0800057c <MX_DMA_Init>:

/**
  * Enable DMA controller clock
  */
static void MX_DMA_Init(void)
{
 800057c:	b580      	push	{r7, lr}
 800057e:	b082      	sub	sp, #8
 8000580:	af00      	add	r7, sp, #0

  /* DMA controller clock enable */
  __HAL_RCC_DMA1_CLK_ENABLE();
 8000582:	4b10      	ldr	r3, [pc, #64]	; (80005c4 <MX_DMA_Init+0x48>)
 8000584:	695a      	ldr	r2, [r3, #20]
 8000586:	4b0f      	ldr	r3, [pc, #60]	; (80005c4 <MX_DMA_Init+0x48>)
 8000588:	2101      	movs	r1, #1
 800058a:	430a      	orrs	r2, r1
 800058c:	615a      	str	r2, [r3, #20]
 800058e:	4b0d      	ldr	r3, [pc, #52]	; (80005c4 <MX_DMA_Init+0x48>)
 8000590:	695b      	ldr	r3, [r3, #20]
 8000592:	2201      	movs	r2, #1
 8000594:	4013      	ands	r3, r2
 8000596:	607b      	str	r3, [r7, #4]
 8000598:	687b      	ldr	r3, [r7, #4]

  /* DMA interrupt init */
  /* DMA1_Channel1_IRQn interrupt configuration */
  HAL_NVIC_SetPriority(DMA1_Channel1_IRQn, 0, 0);
 800059a:	2200      	movs	r2, #0
 800059c:	2100      	movs	r1, #0
 800059e:	2009      	movs	r0, #9
 80005a0:	f001 f9ae 	bl	8001900 <HAL_NVIC_SetPriority>
  HAL_NVIC_EnableIRQ(DMA1_Channel1_IRQn);
 80005a4:	2009      	movs	r0, #9
 80005a6:	f001 f9c0 	bl	800192a <HAL_NVIC_EnableIRQ>
  /* DMA1_Channel4_5_IRQn interrupt configuration */
  HAL_NVIC_SetPriority(DMA1_Channel4_5_IRQn, 0, 0);
 80005aa:	2200      	movs	r2, #0
 80005ac:	2100      	movs	r1, #0
 80005ae:	200b      	movs	r0, #11
 80005b0:	f001 f9a6 	bl	8001900 <HAL_NVIC_SetPriority>
  HAL_NVIC_EnableIRQ(DMA1_Channel4_5_IRQn);
 80005b4:	200b      	movs	r0, #11
 80005b6:	f001 f9b8 	bl	800192a <HAL_NVIC_EnableIRQ>

}
 80005ba:	46c0      	nop			; (mov r8, r8)
 80005bc:	46bd      	mov	sp, r7
 80005be:	b002      	add	sp, #8
 80005c0:	bd80      	pop	{r7, pc}
 80005c2:	46c0      	nop			; (mov r8, r8)
 80005c4:	40021000 	.word	0x40021000

080005c8 <MX_GPIO_Init>:
  * @brief GPIO Initialization Function
  * @param None
  * @retval None
  */
static void MX_GPIO_Init(void)
{
 80005c8:	b590      	push	{r4, r7, lr}
 80005ca:	b08b      	sub	sp, #44	; 0x2c
 80005cc:	af00      	add	r7, sp, #0
  GPIO_InitTypeDef GPIO_InitStruct = {0};
 80005ce:	2414      	movs	r4, #20
 80005d0:	193b      	adds	r3, r7, r4
 80005d2:	0018      	movs	r0, r3
 80005d4:	2314      	movs	r3, #20
 80005d6:	001a      	movs	r2, r3
 80005d8:	2100      	movs	r1, #0
 80005da:	f003 ffdb 	bl	8004594 <memset>

  /* GPIO Ports Clock Enable */
  __HAL_RCC_GPIOF_CLK_ENABLE();
 80005de:	4b43      	ldr	r3, [pc, #268]	; (80006ec <MX_GPIO_Init+0x124>)
 80005e0:	695a      	ldr	r2, [r3, #20]
 80005e2:	4b42      	ldr	r3, [pc, #264]	; (80006ec <MX_GPIO_Init+0x124>)
 80005e4:	2180      	movs	r1, #128	; 0x80
 80005e6:	03c9      	lsls	r1, r1, #15
 80005e8:	430a      	orrs	r2, r1
 80005ea:	615a      	str	r2, [r3, #20]
 80005ec:	4b3f      	ldr	r3, [pc, #252]	; (80006ec <MX_GPIO_Init+0x124>)
 80005ee:	695a      	ldr	r2, [r3, #20]
 80005f0:	2380      	movs	r3, #128	; 0x80
 80005f2:	03db      	lsls	r3, r3, #15
 80005f4:	4013      	ands	r3, r2
 80005f6:	613b      	str	r3, [r7, #16]
 80005f8:	693b      	ldr	r3, [r7, #16]
  __HAL_RCC_GPIOA_CLK_ENABLE();
 80005fa:	4b3c      	ldr	r3, [pc, #240]	; (80006ec <MX_GPIO_Init+0x124>)
 80005fc:	695a      	ldr	r2, [r3, #20]
 80005fe:	4b3b      	ldr	r3, [pc, #236]	; (80006ec <MX_GPIO_Init+0x124>)
 8000600:	2180      	movs	r1, #128	; 0x80
 8000602:	0289      	lsls	r1, r1, #10
 8000604:	430a      	orrs	r2, r1
 8000606:	615a      	str	r2, [r3, #20]
 8000608:	4b38      	ldr	r3, [pc, #224]	; (80006ec <MX_GPIO_Init+0x124>)
 800060a:	695a      	ldr	r2, [r3, #20]
 800060c:	2380      	movs	r3, #128	; 0x80
 800060e:	029b      	lsls	r3, r3, #10
 8000610:	4013      	ands	r3, r2
 8000612:	60fb      	str	r3, [r7, #12]
 8000614:	68fb      	ldr	r3, [r7, #12]
  __HAL_RCC_GPIOC_CLK_ENABLE();
 8000616:	4b35      	ldr	r3, [pc, #212]	; (80006ec <MX_GPIO_Init+0x124>)
 8000618:	695a      	ldr	r2, [r3, #20]
 800061a:	4b34      	ldr	r3, [pc, #208]	; (80006ec <MX_GPIO_Init+0x124>)
 800061c:	2180      	movs	r1, #128	; 0x80
 800061e:	0309      	lsls	r1, r1, #12
 8000620:	430a      	orrs	r2, r1
 8000622:	615a      	str	r2, [r3, #20]
 8000624:	4b31      	ldr	r3, [pc, #196]	; (80006ec <MX_GPIO_Init+0x124>)
 8000626:	695a      	ldr	r2, [r3, #20]
 8000628:	2380      	movs	r3, #128	; 0x80
 800062a:	031b      	lsls	r3, r3, #12
 800062c:	4013      	ands	r3, r2
 800062e:	60bb      	str	r3, [r7, #8]
 8000630:	68bb      	ldr	r3, [r7, #8]
  __HAL_RCC_GPIOB_CLK_ENABLE();
 8000632:	4b2e      	ldr	r3, [pc, #184]	; (80006ec <MX_GPIO_Init+0x124>)
 8000634:	695a      	ldr	r2, [r3, #20]
 8000636:	4b2d      	ldr	r3, [pc, #180]	; (80006ec <MX_GPIO_Init+0x124>)
 8000638:	2180      	movs	r1, #128	; 0x80
 800063a:	02c9      	lsls	r1, r1, #11
 800063c:	430a      	orrs	r2, r1
 800063e:	615a      	str	r2, [r3, #20]
 8000640:	4b2a      	ldr	r3, [pc, #168]	; (80006ec <MX_GPIO_Init+0x124>)
 8000642:	695a      	ldr	r2, [r3, #20]
 8000644:	2380      	movs	r3, #128	; 0x80
 8000646:	02db      	lsls	r3, r3, #11
 8000648:	4013      	ands	r3, r2
 800064a:	607b      	str	r3, [r7, #4]
 800064c:	687b      	ldr	r3, [r7, #4]

  /*Configure GPIO pin Output Level */
  HAL_GPIO_WritePin(LD4_GPIO_Port, LD4_Pin, GPIO_PIN_RESET);
 800064e:	2380      	movs	r3, #128	; 0x80
 8000650:	005b      	lsls	r3, r3, #1
 8000652:	4827      	ldr	r0, [pc, #156]	; (80006f0 <MX_GPIO_Init+0x128>)
 8000654:	2200      	movs	r2, #0
 8000656:	0019      	movs	r1, r3
 8000658:	f001 fc78 	bl	8001f4c <HAL_GPIO_WritePin>

  /*Configure GPIO pin : B1_Pin */
  GPIO_InitStruct.Pin = B1_Pin;
 800065c:	193b      	adds	r3, r7, r4
 800065e:	2201      	movs	r2, #1
 8000660:	601a      	str	r2, [r3, #0]
  GPIO_InitStruct.Mode = GPIO_MODE_IT_FALLING;
 8000662:	193b      	adds	r3, r7, r4
 8000664:	2284      	movs	r2, #132	; 0x84
 8000666:	0392      	lsls	r2, r2, #14
 8000668:	605a      	str	r2, [r3, #4]
  GPIO_InitStruct.Pull = GPIO_NOPULL;
 800066a:	193b      	adds	r3, r7, r4
 800066c:	2200      	movs	r2, #0
 800066e:	609a      	str	r2, [r3, #8]
  HAL_GPIO_Init(B1_GPIO_Port, &GPIO_InitStruct);
 8000670:	193a      	adds	r2, r7, r4
 8000672:	2390      	movs	r3, #144	; 0x90
 8000674:	05db      	lsls	r3, r3, #23
 8000676:	0011      	movs	r1, r2
 8000678:	0018      	movs	r0, r3
 800067a:	f001 faf7 	bl	8001c6c <HAL_GPIO_Init>

  /*Configure GPIO pin : LD4_Pin */
  GPIO_InitStruct.Pin = LD4_Pin;
 800067e:	0021      	movs	r1, r4
 8000680:	187b      	adds	r3, r7, r1
 8000682:	2280      	movs	r2, #128	; 0x80
 8000684:	0052      	lsls	r2, r2, #1
 8000686:	601a      	str	r2, [r3, #0]
  GPIO_InitStruct.Mode = GPIO_MODE_OUTPUT_PP;
 8000688:	000c      	movs	r4, r1
 800068a:	193b      	adds	r3, r7, r4
 800068c:	2201      	movs	r2, #1
 800068e:	605a      	str	r2, [r3, #4]
  GPIO_InitStruct.Pull = GPIO_NOPULL;
 8000690:	193b      	adds	r3, r7, r4
 8000692:	2200      	movs	r2, #0
 8000694:	609a      	str	r2, [r3, #8]
  GPIO_InitStruct.Speed = GPIO_SPEED_FREQ_LOW;
 8000696:	193b      	adds	r3, r7, r4
 8000698:	2200      	movs	r2, #0
 800069a:	60da      	str	r2, [r3, #12]
  HAL_GPIO_Init(LD4_GPIO_Port, &GPIO_InitStruct);
 800069c:	193b      	adds	r3, r7, r4
 800069e:	4a14      	ldr	r2, [pc, #80]	; (80006f0 <MX_GPIO_Init+0x128>)
 80006a0:	0019      	movs	r1, r3
 80006a2:	0010      	movs	r0, r2
 80006a4:	f001 fae2 	bl	8001c6c <HAL_GPIO_Init>

  /*Configure GPIO pins : PB6 PB7 */
  GPIO_InitStruct.Pin = GPIO_PIN_6|GPIO_PIN_7;
 80006a8:	0021      	movs	r1, r4
 80006aa:	187b      	adds	r3, r7, r1
 80006ac:	22c0      	movs	r2, #192	; 0xc0
 80006ae:	601a      	str	r2, [r3, #0]
  GPIO_InitStruct.Mode = GPIO_MODE_AF_OD;
 80006b0:	187b      	adds	r3, r7, r1
 80006b2:	2212      	movs	r2, #18
 80006b4:	605a      	str	r2, [r3, #4]
  GPIO_InitStruct.Pull = GPIO_NOPULL;
 80006b6:	187b      	adds	r3, r7, r1
 80006b8:	2200      	movs	r2, #0
 80006ba:	609a      	str	r2, [r3, #8]
  GPIO_InitStruct.Speed = GPIO_SPEED_FREQ_HIGH;
 80006bc:	187b      	adds	r3, r7, r1
 80006be:	2203      	movs	r2, #3
 80006c0:	60da      	str	r2, [r3, #12]
  GPIO_InitStruct.Alternate = GPIO_AF1_I2C1;
 80006c2:	187b      	adds	r3, r7, r1
 80006c4:	2201      	movs	r2, #1
 80006c6:	611a      	str	r2, [r3, #16]
  HAL_GPIO_Init(GPIOB, &GPIO_InitStruct);
 80006c8:	187b      	adds	r3, r7, r1
 80006ca:	4a0a      	ldr	r2, [pc, #40]	; (80006f4 <MX_GPIO_Init+0x12c>)
 80006cc:	0019      	movs	r1, r3
 80006ce:	0010      	movs	r0, r2
 80006d0:	f001 facc 	bl	8001c6c <HAL_GPIO_Init>

  /* EXTI interrupt init*/
  HAL_NVIC_SetPriority(EXTI0_1_IRQn, 0, 0);
 80006d4:	2200      	movs	r2, #0
 80006d6:	2100      	movs	r1, #0
 80006d8:	2005      	movs	r0, #5
 80006da:	f001 f911 	bl	8001900 <HAL_NVIC_SetPriority>
  HAL_NVIC_EnableIRQ(EXTI0_1_IRQn);
 80006de:	2005      	movs	r0, #5
 80006e0:	f001 f923 	bl	800192a <HAL_NVIC_EnableIRQ>

}
 80006e4:	46c0      	nop			; (mov r8, r8)
 80006e6:	46bd      	mov	sp, r7
 80006e8:	b00b      	add	sp, #44	; 0x2c
 80006ea:	bd90      	pop	{r4, r7, pc}
 80006ec:	40021000 	.word	0x40021000
 80006f0:	48000800 	.word	0x48000800
 80006f4:	48000400 	.word	0x48000400

080006f8 <EXTI0_1_IRQHandler>:

/* USER CODE BEGIN 4 */
void EXTI0_1_IRQHandler(void)
{
 80006f8:	b580      	push	{r7, lr}
 80006fa:	af00      	add	r7, sp, #0
	//TO DO:
	//TASK 1
	//Switch delay frequency

	sprintf(buffer, "Button pushed!");
 80006fc:	4a10      	ldr	r2, [pc, #64]	; (8000740 <EXTI0_1_IRQHandler+0x48>)
 80006fe:	4b11      	ldr	r3, [pc, #68]	; (8000744 <EXTI0_1_IRQHandler+0x4c>)
 8000700:	0011      	movs	r1, r2
 8000702:	0018      	movs	r0, r3
 8000704:	f003 ff4e 	bl	80045a4 <siprintf>
	HAL_UART_Transmit(&huart2, buffer, sizeof(buffer), 1000);
 8000708:	23fa      	movs	r3, #250	; 0xfa
 800070a:	009b      	lsls	r3, r3, #2
 800070c:	490d      	ldr	r1, [pc, #52]	; (8000744 <EXTI0_1_IRQHandler+0x4c>)
 800070e:	480e      	ldr	r0, [pc, #56]	; (8000748 <EXTI0_1_IRQHandler+0x50>)
 8000710:	2214      	movs	r2, #20
 8000712:	f002 ffcb 	bl	80036ac <HAL_UART_Transmit>

	if (delay == 500) {
 8000716:	4b0d      	ldr	r3, [pc, #52]	; (800074c <EXTI0_1_IRQHandler+0x54>)
 8000718:	681a      	ldr	r2, [r3, #0]
 800071a:	23fa      	movs	r3, #250	; 0xfa
 800071c:	005b      	lsls	r3, r3, #1
 800071e:	429a      	cmp	r2, r3
 8000720:	d103      	bne.n	800072a <EXTI0_1_IRQHandler+0x32>
		delay = 250;
 8000722:	4b0a      	ldr	r3, [pc, #40]	; (800074c <EXTI0_1_IRQHandler+0x54>)
 8000724:	22fa      	movs	r2, #250	; 0xfa
 8000726:	601a      	str	r2, [r3, #0]
 8000728:	e003      	b.n	8000732 <EXTI0_1_IRQHandler+0x3a>
	}
	else {
		delay = 500;
 800072a:	4b08      	ldr	r3, [pc, #32]	; (800074c <EXTI0_1_IRQHandler+0x54>)
 800072c:	22fa      	movs	r2, #250	; 0xfa
 800072e:	0052      	lsls	r2, r2, #1
 8000730:	601a      	str	r2, [r3, #0]
	}

	HAL_GPIO_EXTI_IRQHandler(B1_Pin); // Clear interrupt flags
 8000732:	2001      	movs	r0, #1
 8000734:	f001 fc42 	bl	8001fbc <HAL_GPIO_EXTI_IRQHandler>
}
 8000738:	46c0      	nop			; (mov r8, r8)
 800073a:	46bd      	mov	sp, r7
 800073c:	bd80      	pop	{r7, pc}
 800073e:	46c0      	nop			; (mov r8, r8)
 8000740:	08004eac 	.word	0x08004eac
 8000744:	20000224 	.word	0x20000224
 8000748:	2000015c 	.word	0x2000015c
 800074c:	20000000 	.word	0x20000000

08000750 <pollADC>:

uint32_t pollADC(void){
 8000750:	b580      	push	{r7, lr}
 8000752:	b082      	sub	sp, #8
 8000754:	af00      	add	r7, sp, #0
	//TO DO:
	//TASK 2
	// Complete the function body

	uint32_t val;
  HAL_ADCEx_Calibration_Start(&hadc);
 8000756:	4b0c      	ldr	r3, [pc, #48]	; (8000788 <pollADC+0x38>)
 8000758:	0018      	movs	r0, r3
 800075a:	f000 ff7d 	bl	8001658 <HAL_ADCEx_Calibration_Start>
  HAL_ADC_Start(&hadc);
 800075e:	4b0a      	ldr	r3, [pc, #40]	; (8000788 <pollADC+0x38>)
 8000760:	0018      	movs	r0, r3
 8000762:	f000 fc1f 	bl	8000fa4 <HAL_ADC_Start>
  HAL_ADC_PollForConversion(&hadc, 1);
 8000766:	4b08      	ldr	r3, [pc, #32]	; (8000788 <pollADC+0x38>)
 8000768:	2101      	movs	r1, #1
 800076a:	0018      	movs	r0, r3
 800076c:	f000 fc6e 	bl	800104c <HAL_ADC_PollForConversion>
  val = HAL_ADC_GetValue(&hadc);
 8000770:	4b05      	ldr	r3, [pc, #20]	; (8000788 <pollADC+0x38>)
 8000772:	0018      	movs	r0, r3
 8000774:	f000 fd02 	bl	800117c <HAL_ADC_GetValue>
 8000778:	0003      	movs	r3, r0
 800077a:	607b      	str	r3, [r7, #4]

	return val;
 800077c:	687b      	ldr	r3, [r7, #4]
}
 800077e:	0018      	movs	r0, r3
 8000780:	46bd      	mov	sp, r7
 8000782:	b002      	add	sp, #8
 8000784:	bd80      	pop	{r7, pc}
 8000786:	46c0      	nop			; (mov r8, r8)
 8000788:	20000090 	.word	0x20000090

0800078c <ADCtoCRR>:

uint32_t ADCtoCRR(uint32_t adc_val){
 800078c:	b580      	push	{r7, lr}
 800078e:	b084      	sub	sp, #16
 8000790:	af00      	add	r7, sp, #0
 8000792:	6078      	str	r0, [r7, #4]
	//HINT: The CRR value for 100% DC is 47999 (DC = CRR/ARR = CRR/47999)
	//HINT: The ADC range is approx 0 - 4095
	//HINT: Scale number from 0-4096 to 0 - 47999
	uint32_t val;

  val = adc_val*47999/4095;
 8000794:	687b      	ldr	r3, [r7, #4]
 8000796:	4a06      	ldr	r2, [pc, #24]	; (80007b0 <ADCtoCRR+0x24>)
 8000798:	4353      	muls	r3, r2
 800079a:	4906      	ldr	r1, [pc, #24]	; (80007b4 <ADCtoCRR+0x28>)
 800079c:	0018      	movs	r0, r3
 800079e:	f7ff fcbd 	bl	800011c <__udivsi3>
 80007a2:	0003      	movs	r3, r0
 80007a4:	60fb      	str	r3, [r7, #12]
	return val;
 80007a6:	68fb      	ldr	r3, [r7, #12]
}
 80007a8:	0018      	movs	r0, r3
 80007aa:	46bd      	mov	sp, r7
 80007ac:	b004      	add	sp, #16
 80007ae:	bd80      	pop	{r7, pc}
 80007b0:	0000bb7f 	.word	0x0000bb7f
 80007b4:	00000fff 	.word	0x00000fff

080007b8 <Error_Handler>:
/**
  * @brief  This function is executed in case of error occurrence.
  * @retval None
  */
void Error_Handler(void)
{
 80007b8:	b580      	push	{r7, lr}
 80007ba:	af00      	add	r7, sp, #0
  \details Disables IRQ interrupts by setting the I-bit in the CPSR.
           Can only be executed in Privileged modes.
 */
__STATIC_FORCEINLINE void __disable_irq(void)
{
  __ASM volatile ("cpsid i" : : : "memory");
 80007bc:	b672      	cpsid	i
}
 80007be:	46c0      	nop			; (mov r8, r8)
  /* USER CODE BEGIN Error_Handler_Debug */
  /* User can add his own implementation to report the HAL error return state */
  __disable_irq();
  while (1)
 80007c0:	e7fe      	b.n	80007c0 <Error_Handler+0x8>
	...

080007c4 <HAL_MspInit>:
 80007c4:	b580      	push	{r7, lr}
 80007c6:	b082      	sub	sp, #8
 80007c8:	af00      	add	r7, sp, #0
 80007ca:	4b0f      	ldr	r3, [pc, #60]	; (8000808 <HAL_MspInit+0x44>)
 80007cc:	699a      	ldr	r2, [r3, #24]
 80007ce:	4b0e      	ldr	r3, [pc, #56]	; (8000808 <HAL_MspInit+0x44>)
 80007d0:	2101      	movs	r1, #1
 80007d2:	430a      	orrs	r2, r1
 80007d4:	619a      	str	r2, [r3, #24]
 80007d6:	4b0c      	ldr	r3, [pc, #48]	; (8000808 <HAL_MspInit+0x44>)
 80007d8:	699b      	ldr	r3, [r3, #24]
 80007da:	2201      	movs	r2, #1
 80007dc:	4013      	ands	r3, r2
 80007de:	607b      	str	r3, [r7, #4]
 80007e0:	687b      	ldr	r3, [r7, #4]
 80007e2:	4b09      	ldr	r3, [pc, #36]	; (8000808 <HAL_MspInit+0x44>)
 80007e4:	69da      	ldr	r2, [r3, #28]
 80007e6:	4b08      	ldr	r3, [pc, #32]	; (8000808 <HAL_MspInit+0x44>)
 80007e8:	2180      	movs	r1, #128	; 0x80
 80007ea:	0549      	lsls	r1, r1, #21
 80007ec:	430a      	orrs	r2, r1
 80007ee:	61da      	str	r2, [r3, #28]
 80007f0:	4b05      	ldr	r3, [pc, #20]	; (8000808 <HAL_MspInit+0x44>)
 80007f2:	69da      	ldr	r2, [r3, #28]
 80007f4:	2380      	movs	r3, #128	; 0x80
 80007f6:	055b      	lsls	r3, r3, #21
 80007f8:	4013      	ands	r3, r2
 80007fa:	603b      	str	r3, [r7, #0]
 80007fc:	683b      	ldr	r3, [r7, #0]
 80007fe:	46c0      	nop			; (mov r8, r8)
 8000800:	46bd      	mov	sp, r7
 8000802:	b002      	add	sp, #8
 8000804:	bd80      	pop	{r7, pc}
 8000806:	46c0      	nop			; (mov r8, r8)
 8000808:	40021000 	.word	0x40021000

0800080c <HAL_ADC_MspInit>:
 800080c:	b590      	push	{r4, r7, lr}
 800080e:	b08b      	sub	sp, #44	; 0x2c
 8000810:	af00      	add	r7, sp, #0
 8000812:	6078      	str	r0, [r7, #4]
 8000814:	2414      	movs	r4, #20
 8000816:	193b      	adds	r3, r7, r4
 8000818:	0018      	movs	r0, r3
 800081a:	2314      	movs	r3, #20
 800081c:	001a      	movs	r2, r3
 800081e:	2100      	movs	r1, #0
 8000820:	f003 feb8 	bl	8004594 <memset>
 8000824:	687b      	ldr	r3, [r7, #4]
 8000826:	681b      	ldr	r3, [r3, #0]
 8000828:	4a31      	ldr	r2, [pc, #196]	; (80008f0 <HAL_ADC_MspInit+0xe4>)
 800082a:	4293      	cmp	r3, r2
 800082c:	d15b      	bne.n	80008e6 <HAL_ADC_MspInit+0xda>
 800082e:	4b31      	ldr	r3, [pc, #196]	; (80008f4 <HAL_ADC_MspInit+0xe8>)
 8000830:	699a      	ldr	r2, [r3, #24]
 8000832:	4b30      	ldr	r3, [pc, #192]	; (80008f4 <HAL_ADC_MspInit+0xe8>)
 8000834:	2180      	movs	r1, #128	; 0x80
 8000836:	0089      	lsls	r1, r1, #2
 8000838:	430a      	orrs	r2, r1
 800083a:	619a      	str	r2, [r3, #24]
 800083c:	4b2d      	ldr	r3, [pc, #180]	; (80008f4 <HAL_ADC_MspInit+0xe8>)
 800083e:	699a      	ldr	r2, [r3, #24]
 8000840:	2380      	movs	r3, #128	; 0x80
 8000842:	009b      	lsls	r3, r3, #2
 8000844:	4013      	ands	r3, r2
 8000846:	613b      	str	r3, [r7, #16]
 8000848:	693b      	ldr	r3, [r7, #16]
 800084a:	4b2a      	ldr	r3, [pc, #168]	; (80008f4 <HAL_ADC_MspInit+0xe8>)
 800084c:	695a      	ldr	r2, [r3, #20]
 800084e:	4b29      	ldr	r3, [pc, #164]	; (80008f4 <HAL_ADC_MspInit+0xe8>)
 8000850:	2180      	movs	r1, #128	; 0x80
 8000852:	0289      	lsls	r1, r1, #10
 8000854:	430a      	orrs	r2, r1
 8000856:	615a      	str	r2, [r3, #20]
 8000858:	4b26      	ldr	r3, [pc, #152]	; (80008f4 <HAL_ADC_MspInit+0xe8>)
 800085a:	695a      	ldr	r2, [r3, #20]
 800085c:	2380      	movs	r3, #128	; 0x80
 800085e:	029b      	lsls	r3, r3, #10
 8000860:	4013      	ands	r3, r2
 8000862:	60fb      	str	r3, [r7, #12]
 8000864:	68fb      	ldr	r3, [r7, #12]
 8000866:	193b      	adds	r3, r7, r4
 8000868:	2280      	movs	r2, #128	; 0x80
 800086a:	601a      	str	r2, [r3, #0]
 800086c:	193b      	adds	r3, r7, r4
 800086e:	2203      	movs	r2, #3
 8000870:	605a      	str	r2, [r3, #4]
 8000872:	193b      	adds	r3, r7, r4
 8000874:	2200      	movs	r2, #0
 8000876:	609a      	str	r2, [r3, #8]
 8000878:	193a      	adds	r2, r7, r4
 800087a:	2390      	movs	r3, #144	; 0x90
 800087c:	05db      	lsls	r3, r3, #23
 800087e:	0011      	movs	r1, r2
 8000880:	0018      	movs	r0, r3
 8000882:	f001 f9f3 	bl	8001c6c <HAL_GPIO_Init>
 8000886:	4b1c      	ldr	r3, [pc, #112]	; (80008f8 <HAL_ADC_MspInit+0xec>)
 8000888:	4a1c      	ldr	r2, [pc, #112]	; (80008fc <HAL_ADC_MspInit+0xf0>)
 800088a:	601a      	str	r2, [r3, #0]
 800088c:	4b1a      	ldr	r3, [pc, #104]	; (80008f8 <HAL_ADC_MspInit+0xec>)
 800088e:	2200      	movs	r2, #0
 8000890:	605a      	str	r2, [r3, #4]
 8000892:	4b19      	ldr	r3, [pc, #100]	; (80008f8 <HAL_ADC_MspInit+0xec>)
 8000894:	2200      	movs	r2, #0
 8000896:	609a      	str	r2, [r3, #8]
 8000898:	4b17      	ldr	r3, [pc, #92]	; (80008f8 <HAL_ADC_MspInit+0xec>)
 800089a:	2280      	movs	r2, #128	; 0x80
 800089c:	60da      	str	r2, [r3, #12]
 800089e:	4b16      	ldr	r3, [pc, #88]	; (80008f8 <HAL_ADC_MspInit+0xec>)
 80008a0:	2280      	movs	r2, #128	; 0x80
 80008a2:	0052      	lsls	r2, r2, #1
 80008a4:	611a      	str	r2, [r3, #16]
 80008a6:	4b14      	ldr	r3, [pc, #80]	; (80008f8 <HAL_ADC_MspInit+0xec>)
 80008a8:	2280      	movs	r2, #128	; 0x80
 80008aa:	00d2      	lsls	r2, r2, #3
 80008ac:	615a      	str	r2, [r3, #20]
 80008ae:	4b12      	ldr	r3, [pc, #72]	; (80008f8 <HAL_ADC_MspInit+0xec>)
 80008b0:	2200      	movs	r2, #0
 80008b2:	619a      	str	r2, [r3, #24]
 80008b4:	4b10      	ldr	r3, [pc, #64]	; (80008f8 <HAL_ADC_MspInit+0xec>)
 80008b6:	2200      	movs	r2, #0
 80008b8:	61da      	str	r2, [r3, #28]
 80008ba:	4b0f      	ldr	r3, [pc, #60]	; (80008f8 <HAL_ADC_MspInit+0xec>)
 80008bc:	0018      	movs	r0, r3
 80008be:	f001 f851 	bl	8001964 <HAL_DMA_Init>
 80008c2:	1e03      	subs	r3, r0, #0
 80008c4:	d001      	beq.n	80008ca <HAL_ADC_MspInit+0xbe>
 80008c6:	f7ff ff77 	bl	80007b8 <Error_Handler>
 80008ca:	687b      	ldr	r3, [r7, #4]
 80008cc:	4a0a      	ldr	r2, [pc, #40]	; (80008f8 <HAL_ADC_MspInit+0xec>)
 80008ce:	631a      	str	r2, [r3, #48]	; 0x30
 80008d0:	4b09      	ldr	r3, [pc, #36]	; (80008f8 <HAL_ADC_MspInit+0xec>)
 80008d2:	687a      	ldr	r2, [r7, #4]
 80008d4:	625a      	str	r2, [r3, #36]	; 0x24
 80008d6:	2200      	movs	r2, #0
 80008d8:	2100      	movs	r1, #0
 80008da:	200c      	movs	r0, #12
 80008dc:	f001 f810 	bl	8001900 <HAL_NVIC_SetPriority>
 80008e0:	200c      	movs	r0, #12
 80008e2:	f001 f822 	bl	800192a <HAL_NVIC_EnableIRQ>
 80008e6:	46c0      	nop			; (mov r8, r8)
 80008e8:	46bd      	mov	sp, r7
 80008ea:	b00b      	add	sp, #44	; 0x2c
 80008ec:	bd90      	pop	{r4, r7, pc}
 80008ee:	46c0      	nop			; (mov r8, r8)
 80008f0:	40012400 	.word	0x40012400
 80008f4:	40021000 	.word	0x40021000
 80008f8:	200000d0 	.word	0x200000d0
 80008fc:	40020008 	.word	0x40020008

08000900 <HAL_TIM_Base_MspInit>:
 8000900:	b580      	push	{r7, lr}
 8000902:	b084      	sub	sp, #16
 8000904:	af00      	add	r7, sp, #0
 8000906:	6078      	str	r0, [r7, #4]
 8000908:	687b      	ldr	r3, [r7, #4]
 800090a:	681b      	ldr	r3, [r3, #0]
 800090c:	4a09      	ldr	r2, [pc, #36]	; (8000934 <HAL_TIM_Base_MspInit+0x34>)
 800090e:	4293      	cmp	r3, r2
 8000910:	d10b      	bne.n	800092a <HAL_TIM_Base_MspInit+0x2a>
 8000912:	4b09      	ldr	r3, [pc, #36]	; (8000938 <HAL_TIM_Base_MspInit+0x38>)
 8000914:	69da      	ldr	r2, [r3, #28]
 8000916:	4b08      	ldr	r3, [pc, #32]	; (8000938 <HAL_TIM_Base_MspInit+0x38>)
 8000918:	2102      	movs	r1, #2
 800091a:	430a      	orrs	r2, r1
 800091c:	61da      	str	r2, [r3, #28]
 800091e:	4b06      	ldr	r3, [pc, #24]	; (8000938 <HAL_TIM_Base_MspInit+0x38>)
 8000920:	69db      	ldr	r3, [r3, #28]
 8000922:	2202      	movs	r2, #2
 8000924:	4013      	ands	r3, r2
 8000926:	60fb      	str	r3, [r7, #12]
 8000928:	68fb      	ldr	r3, [r7, #12]
 800092a:	46c0      	nop			; (mov r8, r8)
 800092c:	46bd      	mov	sp, r7
 800092e:	b004      	add	sp, #16
 8000930:	bd80      	pop	{r7, pc}
 8000932:	46c0      	nop			; (mov r8, r8)
 8000934:	40000400 	.word	0x40000400
 8000938:	40021000 	.word	0x40021000

0800093c <HAL_TIM_MspPostInit>:
 800093c:	b590      	push	{r4, r7, lr}
 800093e:	b089      	sub	sp, #36	; 0x24
 8000940:	af00      	add	r7, sp, #0
 8000942:	6078      	str	r0, [r7, #4]
 8000944:	240c      	movs	r4, #12
 8000946:	193b      	adds	r3, r7, r4
 8000948:	0018      	movs	r0, r3
 800094a:	2314      	movs	r3, #20
 800094c:	001a      	movs	r2, r3
 800094e:	2100      	movs	r1, #0
 8000950:	f003 fe20 	bl	8004594 <memset>
 8000954:	687b      	ldr	r3, [r7, #4]
 8000956:	681b      	ldr	r3, [r3, #0]
 8000958:	4a15      	ldr	r2, [pc, #84]	; (80009b0 <HAL_TIM_MspPostInit+0x74>)
 800095a:	4293      	cmp	r3, r2
 800095c:	d124      	bne.n	80009a8 <HAL_TIM_MspPostInit+0x6c>
 800095e:	4b15      	ldr	r3, [pc, #84]	; (80009b4 <HAL_TIM_MspPostInit+0x78>)
 8000960:	695a      	ldr	r2, [r3, #20]
 8000962:	4b14      	ldr	r3, [pc, #80]	; (80009b4 <HAL_TIM_MspPostInit+0x78>)
 8000964:	2180      	movs	r1, #128	; 0x80
 8000966:	0309      	lsls	r1, r1, #12
 8000968:	430a      	orrs	r2, r1
 800096a:	615a      	str	r2, [r3, #20]
 800096c:	4b11      	ldr	r3, [pc, #68]	; (80009b4 <HAL_TIM_MspPostInit+0x78>)
 800096e:	695a      	ldr	r2, [r3, #20]
 8000970:	2380      	movs	r3, #128	; 0x80
 8000972:	031b      	lsls	r3, r3, #12
 8000974:	4013      	ands	r3, r2
 8000976:	60bb      	str	r3, [r7, #8]
 8000978:	68bb      	ldr	r3, [r7, #8]
 800097a:	193b      	adds	r3, r7, r4
 800097c:	2280      	movs	r2, #128	; 0x80
 800097e:	0092      	lsls	r2, r2, #2
 8000980:	601a      	str	r2, [r3, #0]
 8000982:	0021      	movs	r1, r4
 8000984:	187b      	adds	r3, r7, r1
 8000986:	2202      	movs	r2, #2
 8000988:	605a      	str	r2, [r3, #4]
 800098a:	187b      	adds	r3, r7, r1
 800098c:	2200      	movs	r2, #0
 800098e:	609a      	str	r2, [r3, #8]
 8000990:	187b      	adds	r3, r7, r1
 8000992:	2200      	movs	r2, #0
 8000994:	60da      	str	r2, [r3, #12]
 8000996:	187b      	adds	r3, r7, r1
 8000998:	2200      	movs	r2, #0
 800099a:	611a      	str	r2, [r3, #16]
 800099c:	187b      	adds	r3, r7, r1
 800099e:	4a06      	ldr	r2, [pc, #24]	; (80009b8 <HAL_TIM_MspPostInit+0x7c>)
 80009a0:	0019      	movs	r1, r3
 80009a2:	0010      	movs	r0, r2
 80009a4:	f001 f962 	bl	8001c6c <HAL_GPIO_Init>
 80009a8:	46c0      	nop			; (mov r8, r8)
 80009aa:	46bd      	mov	sp, r7
 80009ac:	b009      	add	sp, #36	; 0x24
 80009ae:	bd90      	pop	{r4, r7, pc}
 80009b0:	40000400 	.word	0x40000400
 80009b4:	40021000 	.word	0x40021000
 80009b8:	48000800 	.word	0x48000800

080009bc <HAL_UART_MspInit>:
 80009bc:	b590      	push	{r4, r7, lr}
 80009be:	b08b      	sub	sp, #44	; 0x2c
 80009c0:	af00      	add	r7, sp, #0
 80009c2:	6078      	str	r0, [r7, #4]
 80009c4:	2414      	movs	r4, #20
 80009c6:	193b      	adds	r3, r7, r4
 80009c8:	0018      	movs	r0, r3
 80009ca:	2314      	movs	r3, #20
 80009cc:	001a      	movs	r2, r3
 80009ce:	2100      	movs	r1, #0
 80009d0:	f003 fde0 	bl	8004594 <memset>
 80009d4:	687b      	ldr	r3, [r7, #4]
 80009d6:	681b      	ldr	r3, [r3, #0]
 80009d8:	4a33      	ldr	r2, [pc, #204]	; (8000aa8 <HAL_UART_MspInit+0xec>)
 80009da:	4293      	cmp	r3, r2
 80009dc:	d160      	bne.n	8000aa0 <HAL_UART_MspInit+0xe4>
 80009de:	4b33      	ldr	r3, [pc, #204]	; (8000aac <HAL_UART_MspInit+0xf0>)
 80009e0:	69da      	ldr	r2, [r3, #28]
 80009e2:	4b32      	ldr	r3, [pc, #200]	; (8000aac <HAL_UART_MspInit+0xf0>)
 80009e4:	2180      	movs	r1, #128	; 0x80
 80009e6:	0289      	lsls	r1, r1, #10
 80009e8:	430a      	orrs	r2, r1
 80009ea:	61da      	str	r2, [r3, #28]
 80009ec:	4b2f      	ldr	r3, [pc, #188]	; (8000aac <HAL_UART_MspInit+0xf0>)
 80009ee:	69da      	ldr	r2, [r3, #28]
 80009f0:	2380      	movs	r3, #128	; 0x80
 80009f2:	029b      	lsls	r3, r3, #10
 80009f4:	4013      	ands	r3, r2
 80009f6:	613b      	str	r3, [r7, #16]
 80009f8:	693b      	ldr	r3, [r7, #16]
 80009fa:	4b2c      	ldr	r3, [pc, #176]	; (8000aac <HAL_UART_MspInit+0xf0>)
 80009fc:	695a      	ldr	r2, [r3, #20]
 80009fe:	4b2b      	ldr	r3, [pc, #172]	; (8000aac <HAL_UART_MspInit+0xf0>)
 8000a00:	2180      	movs	r1, #128	; 0x80
 8000a02:	0289      	lsls	r1, r1, #10
 8000a04:	430a      	orrs	r2, r1
 8000a06:	615a      	str	r2, [r3, #20]
 8000a08:	4b28      	ldr	r3, [pc, #160]	; (8000aac <HAL_UART_MspInit+0xf0>)
 8000a0a:	695a      	ldr	r2, [r3, #20]
 8000a0c:	2380      	movs	r3, #128	; 0x80
 8000a0e:	029b      	lsls	r3, r3, #10
 8000a10:	4013      	ands	r3, r2
 8000a12:	60fb      	str	r3, [r7, #12]
 8000a14:	68fb      	ldr	r3, [r7, #12]
 8000a16:	0021      	movs	r1, r4
 8000a18:	187b      	adds	r3, r7, r1
 8000a1a:	220c      	movs	r2, #12
 8000a1c:	601a      	str	r2, [r3, #0]
 8000a1e:	187b      	adds	r3, r7, r1
 8000a20:	2202      	movs	r2, #2
 8000a22:	605a      	str	r2, [r3, #4]
 8000a24:	187b      	adds	r3, r7, r1
 8000a26:	2200      	movs	r2, #0
 8000a28:	609a      	str	r2, [r3, #8]
 8000a2a:	187b      	adds	r3, r7, r1
 8000a2c:	2203      	movs	r2, #3
 8000a2e:	60da      	str	r2, [r3, #12]
 8000a30:	187b      	adds	r3, r7, r1
 8000a32:	2201      	movs	r2, #1
 8000a34:	611a      	str	r2, [r3, #16]
 8000a36:	187a      	adds	r2, r7, r1
 8000a38:	2390      	movs	r3, #144	; 0x90
 8000a3a:	05db      	lsls	r3, r3, #23
 8000a3c:	0011      	movs	r1, r2
 8000a3e:	0018      	movs	r0, r3
 8000a40:	f001 f914 	bl	8001c6c <HAL_GPIO_Init>
 8000a44:	4b1a      	ldr	r3, [pc, #104]	; (8000ab0 <HAL_UART_MspInit+0xf4>)
 8000a46:	4a1b      	ldr	r2, [pc, #108]	; (8000ab4 <HAL_UART_MspInit+0xf8>)
 8000a48:	601a      	str	r2, [r3, #0]
 8000a4a:	4b19      	ldr	r3, [pc, #100]	; (8000ab0 <HAL_UART_MspInit+0xf4>)
 8000a4c:	2210      	movs	r2, #16
 8000a4e:	605a      	str	r2, [r3, #4]
 8000a50:	4b17      	ldr	r3, [pc, #92]	; (8000ab0 <HAL_UART_MspInit+0xf4>)
 8000a52:	2200      	movs	r2, #0
 8000a54:	609a      	str	r2, [r3, #8]
 8000a56:	4b16      	ldr	r3, [pc, #88]	; (8000ab0 <HAL_UART_MspInit+0xf4>)
 8000a58:	2280      	movs	r2, #128	; 0x80
 8000a5a:	60da      	str	r2, [r3, #12]
 8000a5c:	4b14      	ldr	r3, [pc, #80]	; (8000ab0 <HAL_UART_MspInit+0xf4>)
 8000a5e:	2200      	movs	r2, #0
 8000a60:	611a      	str	r2, [r3, #16]
 8000a62:	4b13      	ldr	r3, [pc, #76]	; (8000ab0 <HAL_UART_MspInit+0xf4>)
 8000a64:	2200      	movs	r2, #0
 8000a66:	615a      	str	r2, [r3, #20]
 8000a68:	4b11      	ldr	r3, [pc, #68]	; (8000ab0 <HAL_UART_MspInit+0xf4>)
 8000a6a:	2200      	movs	r2, #0
 8000a6c:	619a      	str	r2, [r3, #24]
 8000a6e:	4b10      	ldr	r3, [pc, #64]	; (8000ab0 <HAL_UART_MspInit+0xf4>)
 8000a70:	2200      	movs	r2, #0
 8000a72:	61da      	str	r2, [r3, #28]
 8000a74:	4b0e      	ldr	r3, [pc, #56]	; (8000ab0 <HAL_UART_MspInit+0xf4>)
 8000a76:	0018      	movs	r0, r3
 8000a78:	f000 ff74 	bl	8001964 <HAL_DMA_Init>
 8000a7c:	1e03      	subs	r3, r0, #0
 8000a7e:	d001      	beq.n	8000a84 <HAL_UART_MspInit+0xc8>
 8000a80:	f7ff fe9a 	bl	80007b8 <Error_Handler>
 8000a84:	687b      	ldr	r3, [r7, #4]
 8000a86:	4a0a      	ldr	r2, [pc, #40]	; (8000ab0 <HAL_UART_MspInit+0xf4>)
 8000a88:	66da      	str	r2, [r3, #108]	; 0x6c
 8000a8a:	4b09      	ldr	r3, [pc, #36]	; (8000ab0 <HAL_UART_MspInit+0xf4>)
 8000a8c:	687a      	ldr	r2, [r7, #4]
 8000a8e:	625a      	str	r2, [r3, #36]	; 0x24
 8000a90:	2200      	movs	r2, #0
 8000a92:	2100      	movs	r1, #0
 8000a94:	201c      	movs	r0, #28
 8000a96:	f000 ff33 	bl	8001900 <HAL_NVIC_SetPriority>
 8000a9a:	201c      	movs	r0, #28
 8000a9c:	f000 ff45 	bl	800192a <HAL_NVIC_EnableIRQ>
 8000aa0:	46c0      	nop			; (mov r8, r8)
 8000aa2:	46bd      	mov	sp, r7
 8000aa4:	b00b      	add	sp, #44	; 0x2c
 8000aa6:	bd90      	pop	{r4, r7, pc}
 8000aa8:	40004400 	.word	0x40004400
 8000aac:	40021000 	.word	0x40021000
 8000ab0:	200001e0 	.word	0x200001e0
 8000ab4:	40020044 	.word	0x40020044

08000ab8 <NMI_Handler>:
 8000ab8:	b580      	push	{r7, lr}
 8000aba:	af00      	add	r7, sp, #0
 8000abc:	e7fe      	b.n	8000abc <NMI_Handler+0x4>

08000abe <HardFault_Handler>:
 8000abe:	b580      	push	{r7, lr}
 8000ac0:	af00      	add	r7, sp, #0
 8000ac2:	e7fe      	b.n	8000ac2 <HardFault_Handler+0x4>

08000ac4 <SVC_Handler>:
 8000ac4:	b580      	push	{r7, lr}
 8000ac6:	af00      	add	r7, sp, #0
 8000ac8:	46c0      	nop			; (mov r8, r8)
 8000aca:	46bd      	mov	sp, r7
 8000acc:	bd80      	pop	{r7, pc}

08000ace <PendSV_Handler>:
 8000ace:	b580      	push	{r7, lr}
 8000ad0:	af00      	add	r7, sp, #0
 8000ad2:	46c0      	nop			; (mov r8, r8)
 8000ad4:	46bd      	mov	sp, r7
 8000ad6:	bd80      	pop	{r7, pc}

08000ad8 <SysTick_Handler>:
 8000ad8:	b580      	push	{r7, lr}
 8000ada:	af00      	add	r7, sp, #0
 8000adc:	f000 f8e2 	bl	8000ca4 <HAL_IncTick>
 8000ae0:	46c0      	nop			; (mov r8, r8)
 8000ae2:	46bd      	mov	sp, r7
 8000ae4:	bd80      	pop	{r7, pc}
	...

08000ae8 <DMA1_Channel1_IRQHandler>:
 8000ae8:	b580      	push	{r7, lr}
 8000aea:	af00      	add	r7, sp, #0
 8000aec:	4b03      	ldr	r3, [pc, #12]	; (8000afc <DMA1_Channel1_IRQHandler+0x14>)
 8000aee:	0018      	movs	r0, r3
 8000af0:	f000 fffd 	bl	8001aee <HAL_DMA_IRQHandler>
 8000af4:	46c0      	nop			; (mov r8, r8)
 8000af6:	46bd      	mov	sp, r7
 8000af8:	bd80      	pop	{r7, pc}
 8000afa:	46c0      	nop			; (mov r8, r8)
 8000afc:	200000d0 	.word	0x200000d0

08000b00 <DMA1_Channel4_5_IRQHandler>:
 8000b00:	b580      	push	{r7, lr}
 8000b02:	af00      	add	r7, sp, #0
 8000b04:	4b03      	ldr	r3, [pc, #12]	; (8000b14 <DMA1_Channel4_5_IRQHandler+0x14>)
 8000b06:	0018      	movs	r0, r3
 8000b08:	f000 fff1 	bl	8001aee <HAL_DMA_IRQHandler>
 8000b0c:	46c0      	nop			; (mov r8, r8)
 8000b0e:	46bd      	mov	sp, r7
 8000b10:	bd80      	pop	{r7, pc}
 8000b12:	46c0      	nop			; (mov r8, r8)
 8000b14:	200001e0 	.word	0x200001e0

08000b18 <ADC1_COMP_IRQHandler>:
 8000b18:	b580      	push	{r7, lr}
 8000b1a:	af00      	add	r7, sp, #0
 8000b1c:	4b03      	ldr	r3, [pc, #12]	; (8000b2c <ADC1_COMP_IRQHandler+0x14>)
 8000b1e:	0018      	movs	r0, r3
 8000b20:	f000 fb38 	bl	8001194 <HAL_ADC_IRQHandler>
 8000b24:	46c0      	nop			; (mov r8, r8)
 8000b26:	46bd      	mov	sp, r7
 8000b28:	bd80      	pop	{r7, pc}
 8000b2a:	46c0      	nop			; (mov r8, r8)
 8000b2c:	20000090 	.word	0x20000090

08000b30 <USART2_IRQHandler>:
 8000b30:	b580      	push	{r7, lr}
 8000b32:	af00      	add	r7, sp, #0
 8000b34:	4b03      	ldr	r3, [pc, #12]	; (8000b44 <USART2_IRQHandler+0x14>)
 8000b36:	0018      	movs	r0, r3
 8000b38:	f002 fe62 	bl	8003800 <HAL_UART_IRQHandler>
 8000b3c:	46c0      	nop			; (mov r8, r8)
 8000b3e:	46bd      	mov	sp, r7
 8000b40:	bd80      	pop	{r7, pc}
 8000b42:	46c0      	nop			; (mov r8, r8)
 8000b44:	2000015c 	.word	0x2000015c

08000b48 <_sbrk>:
 8000b48:	b580      	push	{r7, lr}
 8000b4a:	b086      	sub	sp, #24
 8000b4c:	af00      	add	r7, sp, #0
 8000b4e:	6078      	str	r0, [r7, #4]
 8000b50:	4a14      	ldr	r2, [pc, #80]	; (8000ba4 <_sbrk+0x5c>)
 8000b52:	4b15      	ldr	r3, [pc, #84]	; (8000ba8 <_sbrk+0x60>)
 8000b54:	1ad3      	subs	r3, r2, r3
 8000b56:	617b      	str	r3, [r7, #20]
 8000b58:	697b      	ldr	r3, [r7, #20]
 8000b5a:	613b      	str	r3, [r7, #16]
 8000b5c:	4b13      	ldr	r3, [pc, #76]	; (8000bac <_sbrk+0x64>)
 8000b5e:	681b      	ldr	r3, [r3, #0]
 8000b60:	2b00      	cmp	r3, #0
 8000b62:	d102      	bne.n	8000b6a <_sbrk+0x22>
 8000b64:	4b11      	ldr	r3, [pc, #68]	; (8000bac <_sbrk+0x64>)
 8000b66:	4a12      	ldr	r2, [pc, #72]	; (8000bb0 <_sbrk+0x68>)
 8000b68:	601a      	str	r2, [r3, #0]
 8000b6a:	4b10      	ldr	r3, [pc, #64]	; (8000bac <_sbrk+0x64>)
 8000b6c:	681a      	ldr	r2, [r3, #0]
 8000b6e:	687b      	ldr	r3, [r7, #4]
 8000b70:	18d3      	adds	r3, r2, r3
 8000b72:	693a      	ldr	r2, [r7, #16]
 8000b74:	429a      	cmp	r2, r3
 8000b76:	d207      	bcs.n	8000b88 <_sbrk+0x40>
 8000b78:	f003 fce2 	bl	8004540 <__errno>
 8000b7c:	0003      	movs	r3, r0
 8000b7e:	220c      	movs	r2, #12
 8000b80:	601a      	str	r2, [r3, #0]
 8000b82:	2301      	movs	r3, #1
 8000b84:	425b      	negs	r3, r3
 8000b86:	e009      	b.n	8000b9c <_sbrk+0x54>
 8000b88:	4b08      	ldr	r3, [pc, #32]	; (8000bac <_sbrk+0x64>)
 8000b8a:	681b      	ldr	r3, [r3, #0]
 8000b8c:	60fb      	str	r3, [r7, #12]
 8000b8e:	4b07      	ldr	r3, [pc, #28]	; (8000bac <_sbrk+0x64>)
 8000b90:	681a      	ldr	r2, [r3, #0]
 8000b92:	687b      	ldr	r3, [r7, #4]
 8000b94:	18d2      	adds	r2, r2, r3
 8000b96:	4b05      	ldr	r3, [pc, #20]	; (8000bac <_sbrk+0x64>)
 8000b98:	601a      	str	r2, [r3, #0]
 8000b9a:	68fb      	ldr	r3, [r7, #12]
 8000b9c:	0018      	movs	r0, r3
 8000b9e:	46bd      	mov	sp, r7
 8000ba0:	b006      	add	sp, #24
 8000ba2:	bd80      	pop	{r7, pc}
 8000ba4:	20002000 	.word	0x20002000
 8000ba8:	00000400 	.word	0x00000400
 8000bac:	20000238 	.word	0x20000238
 8000bb0:	20000250 	.word	0x20000250

08000bb4 <SystemInit>:
 8000bb4:	b580      	push	{r7, lr}
 8000bb6:	af00      	add	r7, sp, #0
 8000bb8:	46c0      	nop			; (mov r8, r8)
 8000bba:	46bd      	mov	sp, r7
 8000bbc:	bd80      	pop	{r7, pc}
	...

08000bc0 <Reset_Handler>:
 8000bc0:	480d      	ldr	r0, [pc, #52]	; (8000bf8 <LoopForever+0x2>)
 8000bc2:	4685      	mov	sp, r0
 8000bc4:	480d      	ldr	r0, [pc, #52]	; (8000bfc <LoopForever+0x6>)
 8000bc6:	490e      	ldr	r1, [pc, #56]	; (8000c00 <LoopForever+0xa>)
 8000bc8:	4a0e      	ldr	r2, [pc, #56]	; (8000c04 <LoopForever+0xe>)
 8000bca:	2300      	movs	r3, #0
 8000bcc:	e002      	b.n	8000bd4 <LoopCopyDataInit>

08000bce <CopyDataInit>:
 8000bce:	58d4      	ldr	r4, [r2, r3]
 8000bd0:	50c4      	str	r4, [r0, r3]
 8000bd2:	3304      	adds	r3, #4

08000bd4 <LoopCopyDataInit>:
 8000bd4:	18c4      	adds	r4, r0, r3
 8000bd6:	428c      	cmp	r4, r1
 8000bd8:	d3f9      	bcc.n	8000bce <CopyDataInit>
 8000bda:	4a0b      	ldr	r2, [pc, #44]	; (8000c08 <LoopForever+0x12>)
 8000bdc:	4c0b      	ldr	r4, [pc, #44]	; (8000c0c <LoopForever+0x16>)
 8000bde:	2300      	movs	r3, #0
 8000be0:	e001      	b.n	8000be6 <LoopFillZerobss>

08000be2 <FillZerobss>:
 8000be2:	6013      	str	r3, [r2, #0]
 8000be4:	3204      	adds	r2, #4

08000be6 <LoopFillZerobss>:
 8000be6:	42a2      	cmp	r2, r4
 8000be8:	d3fb      	bcc.n	8000be2 <FillZerobss>
 8000bea:	f7ff ffe3 	bl	8000bb4 <SystemInit>
 8000bee:	f003 fcad 	bl	800454c <__libc_init_array>
 8000bf2:	f7ff fb1f 	bl	8000234 <main>

08000bf6 <LoopForever>:
 8000bf6:	e7fe      	b.n	8000bf6 <LoopForever>
 8000bf8:	20002000 	.word	0x20002000
 8000bfc:	20000000 	.word	0x20000000
 8000c00:	20000074 	.word	0x20000074
 8000c04:	08004f30 	.word	0x08004f30
 8000c08:	20000074 	.word	0x20000074
 8000c0c:	20000250 	.word	0x20000250

08000c10 <CEC_CAN_IRQHandler>:
 8000c10:	e7fe      	b.n	8000c10 <CEC_CAN_IRQHandler>
	...

08000c14 <HAL_Init>:
 8000c14:	b580      	push	{r7, lr}
 8000c16:	af00      	add	r7, sp, #0
 8000c18:	4b07      	ldr	r3, [pc, #28]	; (8000c38 <HAL_Init+0x24>)
 8000c1a:	681a      	ldr	r2, [r3, #0]
 8000c1c:	4b06      	ldr	r3, [pc, #24]	; (8000c38 <HAL_Init+0x24>)
 8000c1e:	2110      	movs	r1, #16
 8000c20:	430a      	orrs	r2, r1
 8000c22:	601a      	str	r2, [r3, #0]
 8000c24:	2000      	movs	r0, #0
 8000c26:	f000 f809 	bl	8000c3c <HAL_InitTick>
 8000c2a:	f7ff fdcb 	bl	80007c4 <HAL_MspInit>
 8000c2e:	2300      	movs	r3, #0
 8000c30:	0018      	movs	r0, r3
 8000c32:	46bd      	mov	sp, r7
 8000c34:	bd80      	pop	{r7, pc}
 8000c36:	46c0      	nop			; (mov r8, r8)
 8000c38:	40022000 	.word	0x40022000

08000c3c <HAL_InitTick>:
 8000c3c:	b590      	push	{r4, r7, lr}
 8000c3e:	b083      	sub	sp, #12
 8000c40:	af00      	add	r7, sp, #0
 8000c42:	6078      	str	r0, [r7, #4]
 8000c44:	4b14      	ldr	r3, [pc, #80]	; (8000c98 <HAL_InitTick+0x5c>)
 8000c46:	681c      	ldr	r4, [r3, #0]
 8000c48:	4b14      	ldr	r3, [pc, #80]	; (8000c9c <HAL_InitTick+0x60>)
 8000c4a:	781b      	ldrb	r3, [r3, #0]
 8000c4c:	0019      	movs	r1, r3
 8000c4e:	23fa      	movs	r3, #250	; 0xfa
 8000c50:	0098      	lsls	r0, r3, #2
 8000c52:	f7ff fa63 	bl	800011c <__udivsi3>
 8000c56:	0003      	movs	r3, r0
 8000c58:	0019      	movs	r1, r3
 8000c5a:	0020      	movs	r0, r4
 8000c5c:	f7ff fa5e 	bl	800011c <__udivsi3>
 8000c60:	0003      	movs	r3, r0
 8000c62:	0018      	movs	r0, r3
 8000c64:	f000 fe71 	bl	800194a <HAL_SYSTICK_Config>
 8000c68:	1e03      	subs	r3, r0, #0
 8000c6a:	d001      	beq.n	8000c70 <HAL_InitTick+0x34>
 8000c6c:	2301      	movs	r3, #1
 8000c6e:	e00f      	b.n	8000c90 <HAL_InitTick+0x54>
 8000c70:	687b      	ldr	r3, [r7, #4]
 8000c72:	2b03      	cmp	r3, #3
 8000c74:	d80b      	bhi.n	8000c8e <HAL_InitTick+0x52>
 8000c76:	6879      	ldr	r1, [r7, #4]
 8000c78:	2301      	movs	r3, #1
 8000c7a:	425b      	negs	r3, r3
 8000c7c:	2200      	movs	r2, #0
 8000c7e:	0018      	movs	r0, r3
 8000c80:	f000 fe3e 	bl	8001900 <HAL_NVIC_SetPriority>
 8000c84:	4b06      	ldr	r3, [pc, #24]	; (8000ca0 <HAL_InitTick+0x64>)
 8000c86:	687a      	ldr	r2, [r7, #4]
 8000c88:	601a      	str	r2, [r3, #0]
 8000c8a:	2300      	movs	r3, #0
 8000c8c:	e000      	b.n	8000c90 <HAL_InitTick+0x54>
 8000c8e:	2301      	movs	r3, #1
 8000c90:	0018      	movs	r0, r3
 8000c92:	46bd      	mov	sp, r7
 8000c94:	b003      	add	sp, #12
 8000c96:	bd90      	pop	{r4, r7, pc}
 8000c98:	20000004 	.word	0x20000004
 8000c9c:	2000000c 	.word	0x2000000c
 8000ca0:	20000008 	.word	0x20000008

08000ca4 <HAL_IncTick>:
 8000ca4:	b580      	push	{r7, lr}
 8000ca6:	af00      	add	r7, sp, #0
 8000ca8:	4b05      	ldr	r3, [pc, #20]	; (8000cc0 <HAL_IncTick+0x1c>)
 8000caa:	781b      	ldrb	r3, [r3, #0]
 8000cac:	001a      	movs	r2, r3
 8000cae:	4b05      	ldr	r3, [pc, #20]	; (8000cc4 <HAL_IncTick+0x20>)
 8000cb0:	681b      	ldr	r3, [r3, #0]
 8000cb2:	18d2      	adds	r2, r2, r3
 8000cb4:	4b03      	ldr	r3, [pc, #12]	; (8000cc4 <HAL_IncTick+0x20>)
 8000cb6:	601a      	str	r2, [r3, #0]
 8000cb8:	46c0      	nop			; (mov r8, r8)
 8000cba:	46bd      	mov	sp, r7
 8000cbc:	bd80      	pop	{r7, pc}
 8000cbe:	46c0      	nop			; (mov r8, r8)
 8000cc0:	2000000c 	.word	0x2000000c
 8000cc4:	2000023c 	.word	0x2000023c

08000cc8 <HAL_GetTick>:
 8000cc8:	b580      	push	{r7, lr}
 8000cca:	af00      	add	r7, sp, #0
 8000ccc:	4b02      	ldr	r3, [pc, #8]	; (8000cd8 <HAL_GetTick+0x10>)
 8000cce:	681b      	ldr	r3, [r3, #0]
 8000cd0:	0018      	movs	r0, r3
 8000cd2:	46bd      	mov	sp, r7
 8000cd4:	bd80      	pop	{r7, pc}
 8000cd6:	46c0      	nop			; (mov r8, r8)
 8000cd8:	2000023c 	.word	0x2000023c

08000cdc <HAL_Delay>:
 8000cdc:	b580      	push	{r7, lr}
 8000cde:	b084      	sub	sp, #16
 8000ce0:	af00      	add	r7, sp, #0
 8000ce2:	6078      	str	r0, [r7, #4]
 8000ce4:	f7ff fff0 	bl	8000cc8 <HAL_GetTick>
 8000ce8:	0003      	movs	r3, r0
 8000cea:	60bb      	str	r3, [r7, #8]
 8000cec:	687b      	ldr	r3, [r7, #4]
 8000cee:	60fb      	str	r3, [r7, #12]
 8000cf0:	68fb      	ldr	r3, [r7, #12]
 8000cf2:	3301      	adds	r3, #1
 8000cf4:	d005      	beq.n	8000d02 <HAL_Delay+0x26>
 8000cf6:	4b0a      	ldr	r3, [pc, #40]	; (8000d20 <HAL_Delay+0x44>)
 8000cf8:	781b      	ldrb	r3, [r3, #0]
 8000cfa:	001a      	movs	r2, r3
 8000cfc:	68fb      	ldr	r3, [r7, #12]
 8000cfe:	189b      	adds	r3, r3, r2
 8000d00:	60fb      	str	r3, [r7, #12]
 8000d02:	46c0      	nop			; (mov r8, r8)
 8000d04:	f7ff ffe0 	bl	8000cc8 <HAL_GetTick>
 8000d08:	0002      	movs	r2, r0
 8000d0a:	68bb      	ldr	r3, [r7, #8]
 8000d0c:	1ad3      	subs	r3, r2, r3
 8000d0e:	68fa      	ldr	r2, [r7, #12]
 8000d10:	429a      	cmp	r2, r3
 8000d12:	d8f7      	bhi.n	8000d04 <HAL_Delay+0x28>
 8000d14:	46c0      	nop			; (mov r8, r8)
 8000d16:	46c0      	nop			; (mov r8, r8)
 8000d18:	46bd      	mov	sp, r7
 8000d1a:	b004      	add	sp, #16
 8000d1c:	bd80      	pop	{r7, pc}
 8000d1e:	46c0      	nop			; (mov r8, r8)
 8000d20:	2000000c 	.word	0x2000000c

08000d24 <HAL_ADC_Init>:
 8000d24:	b580      	push	{r7, lr}
 8000d26:	b084      	sub	sp, #16
 8000d28:	af00      	add	r7, sp, #0
 8000d2a:	6078      	str	r0, [r7, #4]
 8000d2c:	230f      	movs	r3, #15
 8000d2e:	18fb      	adds	r3, r7, r3
 8000d30:	2200      	movs	r2, #0
 8000d32:	701a      	strb	r2, [r3, #0]
 8000d34:	2300      	movs	r3, #0
 8000d36:	60bb      	str	r3, [r7, #8]
 8000d38:	687b      	ldr	r3, [r7, #4]
 8000d3a:	2b00      	cmp	r3, #0
 8000d3c:	d101      	bne.n	8000d42 <HAL_ADC_Init+0x1e>
 8000d3e:	2301      	movs	r3, #1
 8000d40:	e125      	b.n	8000f8e <HAL_ADC_Init+0x26a>
 8000d42:	687b      	ldr	r3, [r7, #4]
 8000d44:	6b9b      	ldr	r3, [r3, #56]	; 0x38
 8000d46:	2b00      	cmp	r3, #0
 8000d48:	d10a      	bne.n	8000d60 <HAL_ADC_Init+0x3c>
 8000d4a:	687b      	ldr	r3, [r7, #4]
 8000d4c:	2200      	movs	r2, #0
 8000d4e:	63da      	str	r2, [r3, #60]	; 0x3c
 8000d50:	687b      	ldr	r3, [r7, #4]
 8000d52:	2234      	movs	r2, #52	; 0x34
 8000d54:	2100      	movs	r1, #0
 8000d56:	5499      	strb	r1, [r3, r2]
 8000d58:	687b      	ldr	r3, [r7, #4]
 8000d5a:	0018      	movs	r0, r3
 8000d5c:	f7ff fd56 	bl	800080c <HAL_ADC_MspInit>
 8000d60:	687b      	ldr	r3, [r7, #4]
 8000d62:	6b9b      	ldr	r3, [r3, #56]	; 0x38
 8000d64:	2210      	movs	r2, #16
 8000d66:	4013      	ands	r3, r2
 8000d68:	d000      	beq.n	8000d6c <HAL_ADC_Init+0x48>
 8000d6a:	e103      	b.n	8000f74 <HAL_ADC_Init+0x250>
 8000d6c:	230f      	movs	r3, #15
 8000d6e:	18fb      	adds	r3, r7, r3
 8000d70:	781b      	ldrb	r3, [r3, #0]
 8000d72:	2b00      	cmp	r3, #0
 8000d74:	d000      	beq.n	8000d78 <HAL_ADC_Init+0x54>
 8000d76:	e0fd      	b.n	8000f74 <HAL_ADC_Init+0x250>
 8000d78:	687b      	ldr	r3, [r7, #4]
 8000d7a:	681b      	ldr	r3, [r3, #0]
 8000d7c:	689b      	ldr	r3, [r3, #8]
 8000d7e:	2204      	movs	r2, #4
 8000d80:	4013      	ands	r3, r2
 8000d82:	d000      	beq.n	8000d86 <HAL_ADC_Init+0x62>
 8000d84:	e0f6      	b.n	8000f74 <HAL_ADC_Init+0x250>
 8000d86:	687b      	ldr	r3, [r7, #4]
 8000d88:	6b9b      	ldr	r3, [r3, #56]	; 0x38
 8000d8a:	4a83      	ldr	r2, [pc, #524]	; (8000f98 <HAL_ADC_Init+0x274>)
 8000d8c:	4013      	ands	r3, r2
 8000d8e:	2202      	movs	r2, #2
 8000d90:	431a      	orrs	r2, r3
 8000d92:	687b      	ldr	r3, [r7, #4]
 8000d94:	639a      	str	r2, [r3, #56]	; 0x38
 8000d96:	687b      	ldr	r3, [r7, #4]
 8000d98:	681b      	ldr	r3, [r3, #0]
 8000d9a:	689b      	ldr	r3, [r3, #8]
 8000d9c:	2203      	movs	r2, #3
 8000d9e:	4013      	ands	r3, r2
 8000da0:	2b01      	cmp	r3, #1
 8000da2:	d112      	bne.n	8000dca <HAL_ADC_Init+0xa6>
 8000da4:	687b      	ldr	r3, [r7, #4]
 8000da6:	681b      	ldr	r3, [r3, #0]
 8000da8:	681b      	ldr	r3, [r3, #0]
 8000daa:	2201      	movs	r2, #1
 8000dac:	4013      	ands	r3, r2
 8000dae:	2b01      	cmp	r3, #1
 8000db0:	d009      	beq.n	8000dc6 <HAL_ADC_Init+0xa2>
 8000db2:	687b      	ldr	r3, [r7, #4]
 8000db4:	681b      	ldr	r3, [r3, #0]
 8000db6:	68da      	ldr	r2, [r3, #12]
 8000db8:	2380      	movs	r3, #128	; 0x80
 8000dba:	021b      	lsls	r3, r3, #8
 8000dbc:	401a      	ands	r2, r3
 8000dbe:	2380      	movs	r3, #128	; 0x80
 8000dc0:	021b      	lsls	r3, r3, #8
 8000dc2:	429a      	cmp	r2, r3
 8000dc4:	d101      	bne.n	8000dca <HAL_ADC_Init+0xa6>
 8000dc6:	2301      	movs	r3, #1
 8000dc8:	e000      	b.n	8000dcc <HAL_ADC_Init+0xa8>
 8000dca:	2300      	movs	r3, #0
 8000dcc:	2b00      	cmp	r3, #0
 8000dce:	d116      	bne.n	8000dfe <HAL_ADC_Init+0xda>
 8000dd0:	687b      	ldr	r3, [r7, #4]
 8000dd2:	681b      	ldr	r3, [r3, #0]
 8000dd4:	68db      	ldr	r3, [r3, #12]
 8000dd6:	2218      	movs	r2, #24
 8000dd8:	4393      	bics	r3, r2
 8000dda:	0019      	movs	r1, r3
 8000ddc:	687b      	ldr	r3, [r7, #4]
 8000dde:	689a      	ldr	r2, [r3, #8]
 8000de0:	687b      	ldr	r3, [r7, #4]
 8000de2:	681b      	ldr	r3, [r3, #0]
 8000de4:	430a      	orrs	r2, r1
 8000de6:	60da      	str	r2, [r3, #12]
 8000de8:	687b      	ldr	r3, [r7, #4]
 8000dea:	681b      	ldr	r3, [r3, #0]
 8000dec:	691b      	ldr	r3, [r3, #16]
 8000dee:	009b      	lsls	r3, r3, #2
 8000df0:	0899      	lsrs	r1, r3, #2
 8000df2:	687b      	ldr	r3, [r7, #4]
 8000df4:	685a      	ldr	r2, [r3, #4]
 8000df6:	687b      	ldr	r3, [r7, #4]
 8000df8:	681b      	ldr	r3, [r3, #0]
 8000dfa:	430a      	orrs	r2, r1
 8000dfc:	611a      	str	r2, [r3, #16]
 8000dfe:	687b      	ldr	r3, [r7, #4]
 8000e00:	681b      	ldr	r3, [r3, #0]
 8000e02:	68da      	ldr	r2, [r3, #12]
 8000e04:	687b      	ldr	r3, [r7, #4]
 8000e06:	681b      	ldr	r3, [r3, #0]
 8000e08:	4964      	ldr	r1, [pc, #400]	; (8000f9c <HAL_ADC_Init+0x278>)
 8000e0a:	400a      	ands	r2, r1
 8000e0c:	60da      	str	r2, [r3, #12]
 8000e0e:	687b      	ldr	r3, [r7, #4]
 8000e10:	7e1b      	ldrb	r3, [r3, #24]
 8000e12:	039a      	lsls	r2, r3, #14
 8000e14:	687b      	ldr	r3, [r7, #4]
 8000e16:	7e5b      	ldrb	r3, [r3, #25]
 8000e18:	03db      	lsls	r3, r3, #15
 8000e1a:	431a      	orrs	r2, r3
 8000e1c:	687b      	ldr	r3, [r7, #4]
 8000e1e:	7e9b      	ldrb	r3, [r3, #26]
 8000e20:	035b      	lsls	r3, r3, #13
 8000e22:	431a      	orrs	r2, r3
 8000e24:	687b      	ldr	r3, [r7, #4]
 8000e26:	6a9b      	ldr	r3, [r3, #40]	; 0x28
 8000e28:	2b01      	cmp	r3, #1
 8000e2a:	d002      	beq.n	8000e32 <HAL_ADC_Init+0x10e>
 8000e2c:	2380      	movs	r3, #128	; 0x80
 8000e2e:	015b      	lsls	r3, r3, #5
 8000e30:	e000      	b.n	8000e34 <HAL_ADC_Init+0x110>
 8000e32:	2300      	movs	r3, #0
 8000e34:	431a      	orrs	r2, r3
 8000e36:	687b      	ldr	r3, [r7, #4]
 8000e38:	68db      	ldr	r3, [r3, #12]
 8000e3a:	431a      	orrs	r2, r3
 8000e3c:	687b      	ldr	r3, [r7, #4]
 8000e3e:	691b      	ldr	r3, [r3, #16]
 8000e40:	2b02      	cmp	r3, #2
 8000e42:	d101      	bne.n	8000e48 <HAL_ADC_Init+0x124>
 8000e44:	2304      	movs	r3, #4
 8000e46:	e000      	b.n	8000e4a <HAL_ADC_Init+0x126>
 8000e48:	2300      	movs	r3, #0
 8000e4a:	431a      	orrs	r2, r3
 8000e4c:	687b      	ldr	r3, [r7, #4]
 8000e4e:	2124      	movs	r1, #36	; 0x24
 8000e50:	5c5b      	ldrb	r3, [r3, r1]
 8000e52:	005b      	lsls	r3, r3, #1
 8000e54:	4313      	orrs	r3, r2
 8000e56:	68ba      	ldr	r2, [r7, #8]
 8000e58:	4313      	orrs	r3, r2
 8000e5a:	60bb      	str	r3, [r7, #8]
 8000e5c:	687b      	ldr	r3, [r7, #4]
 8000e5e:	7edb      	ldrb	r3, [r3, #27]
 8000e60:	2b01      	cmp	r3, #1
 8000e62:	d115      	bne.n	8000e90 <HAL_ADC_Init+0x16c>
 8000e64:	687b      	ldr	r3, [r7, #4]
 8000e66:	7e9b      	ldrb	r3, [r3, #26]
 8000e68:	2b00      	cmp	r3, #0
 8000e6a:	d105      	bne.n	8000e78 <HAL_ADC_Init+0x154>
 8000e6c:	68bb      	ldr	r3, [r7, #8]
 8000e6e:	2280      	movs	r2, #128	; 0x80
 8000e70:	0252      	lsls	r2, r2, #9
 8000e72:	4313      	orrs	r3, r2
 8000e74:	60bb      	str	r3, [r7, #8]
 8000e76:	e00b      	b.n	8000e90 <HAL_ADC_Init+0x16c>
 8000e78:	687b      	ldr	r3, [r7, #4]
 8000e7a:	6b9b      	ldr	r3, [r3, #56]	; 0x38
 8000e7c:	2220      	movs	r2, #32
 8000e7e:	431a      	orrs	r2, r3
 8000e80:	687b      	ldr	r3, [r7, #4]
 8000e82:	639a      	str	r2, [r3, #56]	; 0x38
 8000e84:	687b      	ldr	r3, [r7, #4]
 8000e86:	6bdb      	ldr	r3, [r3, #60]	; 0x3c
 8000e88:	2201      	movs	r2, #1
 8000e8a:	431a      	orrs	r2, r3
 8000e8c:	687b      	ldr	r3, [r7, #4]
 8000e8e:	63da      	str	r2, [r3, #60]	; 0x3c
 8000e90:	687b      	ldr	r3, [r7, #4]
 8000e92:	69da      	ldr	r2, [r3, #28]
 8000e94:	23c2      	movs	r3, #194	; 0xc2
 8000e96:	33ff      	adds	r3, #255	; 0xff
 8000e98:	429a      	cmp	r2, r3
 8000e9a:	d007      	beq.n	8000eac <HAL_ADC_Init+0x188>
 8000e9c:	687b      	ldr	r3, [r7, #4]
 8000e9e:	69da      	ldr	r2, [r3, #28]
 8000ea0:	687b      	ldr	r3, [r7, #4]
 8000ea2:	6a1b      	ldr	r3, [r3, #32]
 8000ea4:	4313      	orrs	r3, r2
 8000ea6:	68ba      	ldr	r2, [r7, #8]
 8000ea8:	4313      	orrs	r3, r2
 8000eaa:	60bb      	str	r3, [r7, #8]
 8000eac:	687b      	ldr	r3, [r7, #4]
 8000eae:	681b      	ldr	r3, [r3, #0]
 8000eb0:	68d9      	ldr	r1, [r3, #12]
 8000eb2:	687b      	ldr	r3, [r7, #4]
 8000eb4:	681b      	ldr	r3, [r3, #0]
 8000eb6:	68ba      	ldr	r2, [r7, #8]
 8000eb8:	430a      	orrs	r2, r1
 8000eba:	60da      	str	r2, [r3, #12]
 8000ebc:	687b      	ldr	r3, [r7, #4]
 8000ebe:	6ada      	ldr	r2, [r3, #44]	; 0x2c
 8000ec0:	2380      	movs	r3, #128	; 0x80
 8000ec2:	055b      	lsls	r3, r3, #21
 8000ec4:	429a      	cmp	r2, r3
 8000ec6:	d01b      	beq.n	8000f00 <HAL_ADC_Init+0x1dc>
 8000ec8:	687b      	ldr	r3, [r7, #4]
 8000eca:	6adb      	ldr	r3, [r3, #44]	; 0x2c
 8000ecc:	2b01      	cmp	r3, #1
 8000ece:	d017      	beq.n	8000f00 <HAL_ADC_Init+0x1dc>
 8000ed0:	687b      	ldr	r3, [r7, #4]
 8000ed2:	6adb      	ldr	r3, [r3, #44]	; 0x2c
 8000ed4:	2b02      	cmp	r3, #2
 8000ed6:	d013      	beq.n	8000f00 <HAL_ADC_Init+0x1dc>
 8000ed8:	687b      	ldr	r3, [r7, #4]
 8000eda:	6adb      	ldr	r3, [r3, #44]	; 0x2c
 8000edc:	2b03      	cmp	r3, #3
 8000ede:	d00f      	beq.n	8000f00 <HAL_ADC_Init+0x1dc>
 8000ee0:	687b      	ldr	r3, [r7, #4]
 8000ee2:	6adb      	ldr	r3, [r3, #44]	; 0x2c
 8000ee4:	2b04      	cmp	r3, #4
 8000ee6:	d00b      	beq.n	8000f00 <HAL_ADC_Init+0x1dc>
 8000ee8:	687b      	ldr	r3, [r7, #4]
 8000eea:	6adb      	ldr	r3, [r3, #44]	; 0x2c
 8000eec:	2b05      	cmp	r3, #5
 8000eee:	d007      	beq.n	8000f00 <HAL_ADC_Init+0x1dc>
 8000ef0:	687b      	ldr	r3, [r7, #4]
 8000ef2:	6adb      	ldr	r3, [r3, #44]	; 0x2c
 8000ef4:	2b06      	cmp	r3, #6
 8000ef6:	d003      	beq.n	8000f00 <HAL_ADC_Init+0x1dc>
 8000ef8:	687b      	ldr	r3, [r7, #4]
 8000efa:	6adb      	ldr	r3, [r3, #44]	; 0x2c
 8000efc:	2b07      	cmp	r3, #7
 8000efe:	d112      	bne.n	8000f26 <HAL_ADC_Init+0x202>
 8000f00:	687b      	ldr	r3, [r7, #4]
 8000f02:	681b      	ldr	r3, [r3, #0]
 8000f04:	695a      	ldr	r2, [r3, #20]
 8000f06:	687b      	ldr	r3, [r7, #4]
 8000f08:	681b      	ldr	r3, [r3, #0]
 8000f0a:	2107      	movs	r1, #7
 8000f0c:	438a      	bics	r2, r1
 8000f0e:	615a      	str	r2, [r3, #20]
 8000f10:	687b      	ldr	r3, [r7, #4]
 8000f12:	681b      	ldr	r3, [r3, #0]
 8000f14:	6959      	ldr	r1, [r3, #20]
 8000f16:	687b      	ldr	r3, [r7, #4]
 8000f18:	6adb      	ldr	r3, [r3, #44]	; 0x2c
 8000f1a:	2207      	movs	r2, #7
 8000f1c:	401a      	ands	r2, r3
 8000f1e:	687b      	ldr	r3, [r7, #4]
 8000f20:	681b      	ldr	r3, [r3, #0]
 8000f22:	430a      	orrs	r2, r1
 8000f24:	615a      	str	r2, [r3, #20]
 8000f26:	687b      	ldr	r3, [r7, #4]
 8000f28:	681b      	ldr	r3, [r3, #0]
 8000f2a:	68db      	ldr	r3, [r3, #12]
 8000f2c:	4a1c      	ldr	r2, [pc, #112]	; (8000fa0 <HAL_ADC_Init+0x27c>)
 8000f2e:	4013      	ands	r3, r2
 8000f30:	68ba      	ldr	r2, [r7, #8]
 8000f32:	429a      	cmp	r2, r3
 8000f34:	d10b      	bne.n	8000f4e <HAL_ADC_Init+0x22a>
 8000f36:	687b      	ldr	r3, [r7, #4]
 8000f38:	2200      	movs	r2, #0
 8000f3a:	63da      	str	r2, [r3, #60]	; 0x3c
 8000f3c:	687b      	ldr	r3, [r7, #4]
 8000f3e:	6b9b      	ldr	r3, [r3, #56]	; 0x38
 8000f40:	2203      	movs	r2, #3
 8000f42:	4393      	bics	r3, r2
 8000f44:	2201      	movs	r2, #1
 8000f46:	431a      	orrs	r2, r3
 8000f48:	687b      	ldr	r3, [r7, #4]
 8000f4a:	639a      	str	r2, [r3, #56]	; 0x38
 8000f4c:	e01c      	b.n	8000f88 <HAL_ADC_Init+0x264>
 8000f4e:	687b      	ldr	r3, [r7, #4]
 8000f50:	6b9b      	ldr	r3, [r3, #56]	; 0x38
 8000f52:	2212      	movs	r2, #18
 8000f54:	4393      	bics	r3, r2
 8000f56:	2210      	movs	r2, #16
 8000f58:	431a      	orrs	r2, r3
 8000f5a:	687b      	ldr	r3, [r7, #4]
 8000f5c:	639a      	str	r2, [r3, #56]	; 0x38
 8000f5e:	687b      	ldr	r3, [r7, #4]
 8000f60:	6bdb      	ldr	r3, [r3, #60]	; 0x3c
 8000f62:	2201      	movs	r2, #1
 8000f64:	431a      	orrs	r2, r3
 8000f66:	687b      	ldr	r3, [r7, #4]
 8000f68:	63da      	str	r2, [r3, #60]	; 0x3c
 8000f6a:	230f      	movs	r3, #15
 8000f6c:	18fb      	adds	r3, r7, r3
 8000f6e:	2201      	movs	r2, #1
 8000f70:	701a      	strb	r2, [r3, #0]
 8000f72:	e009      	b.n	8000f88 <HAL_ADC_Init+0x264>
 8000f74:	687b      	ldr	r3, [r7, #4]
 8000f76:	6b9b      	ldr	r3, [r3, #56]	; 0x38
 8000f78:	2210      	movs	r2, #16
 8000f7a:	431a      	orrs	r2, r3
 8000f7c:	687b      	ldr	r3, [r7, #4]
 8000f7e:	639a      	str	r2, [r3, #56]	; 0x38
 8000f80:	230f      	movs	r3, #15
 8000f82:	18fb      	adds	r3, r7, r3
 8000f84:	2201      	movs	r2, #1
 8000f86:	701a      	strb	r2, [r3, #0]
 8000f88:	230f      	movs	r3, #15
 8000f8a:	18fb      	adds	r3, r7, r3
 8000f8c:	781b      	ldrb	r3, [r3, #0]
 8000f8e:	0018      	movs	r0, r3
 8000f90:	46bd      	mov	sp, r7
 8000f92:	b004      	add	sp, #16
 8000f94:	bd80      	pop	{r7, pc}
 8000f96:	46c0      	nop			; (mov r8, r8)
 8000f98:	fffffefd 	.word	0xfffffefd
 8000f9c:	fffe0219 	.word	0xfffe0219
 8000fa0:	833fffe7 	.word	0x833fffe7

08000fa4 <HAL_ADC_Start>:
 8000fa4:	b590      	push	{r4, r7, lr}
 8000fa6:	b085      	sub	sp, #20
 8000fa8:	af00      	add	r7, sp, #0
 8000faa:	6078      	str	r0, [r7, #4]
 8000fac:	230f      	movs	r3, #15
 8000fae:	18fb      	adds	r3, r7, r3
 8000fb0:	2200      	movs	r2, #0
 8000fb2:	701a      	strb	r2, [r3, #0]
 8000fb4:	687b      	ldr	r3, [r7, #4]
 8000fb6:	681b      	ldr	r3, [r3, #0]
 8000fb8:	689b      	ldr	r3, [r3, #8]
 8000fba:	2204      	movs	r2, #4
 8000fbc:	4013      	ands	r3, r2
 8000fbe:	d138      	bne.n	8001032 <HAL_ADC_Start+0x8e>
 8000fc0:	687b      	ldr	r3, [r7, #4]
 8000fc2:	2234      	movs	r2, #52	; 0x34
 8000fc4:	5c9b      	ldrb	r3, [r3, r2]
 8000fc6:	2b01      	cmp	r3, #1
 8000fc8:	d101      	bne.n	8000fce <HAL_ADC_Start+0x2a>
 8000fca:	2302      	movs	r3, #2
 8000fcc:	e038      	b.n	8001040 <HAL_ADC_Start+0x9c>
 8000fce:	687b      	ldr	r3, [r7, #4]
 8000fd0:	2234      	movs	r2, #52	; 0x34
 8000fd2:	2101      	movs	r1, #1
 8000fd4:	5499      	strb	r1, [r3, r2]
 8000fd6:	687b      	ldr	r3, [r7, #4]
 8000fd8:	7e5b      	ldrb	r3, [r3, #25]
 8000fda:	2b01      	cmp	r3, #1
 8000fdc:	d007      	beq.n	8000fee <HAL_ADC_Start+0x4a>
 8000fde:	230f      	movs	r3, #15
 8000fe0:	18fc      	adds	r4, r7, r3
 8000fe2:	687b      	ldr	r3, [r7, #4]
 8000fe4:	0018      	movs	r0, r3
 8000fe6:	f000 fab3 	bl	8001550 <ADC_Enable>
 8000fea:	0003      	movs	r3, r0
 8000fec:	7023      	strb	r3, [r4, #0]
 8000fee:	230f      	movs	r3, #15
 8000ff0:	18fb      	adds	r3, r7, r3
 8000ff2:	781b      	ldrb	r3, [r3, #0]
 8000ff4:	2b00      	cmp	r3, #0
 8000ff6:	d120      	bne.n	800103a <HAL_ADC_Start+0x96>
 8000ff8:	687b      	ldr	r3, [r7, #4]
 8000ffa:	6b9b      	ldr	r3, [r3, #56]	; 0x38
 8000ffc:	4a12      	ldr	r2, [pc, #72]	; (8001048 <HAL_ADC_Start+0xa4>)
 8000ffe:	4013      	ands	r3, r2
 8001000:	2280      	movs	r2, #128	; 0x80
 8001002:	0052      	lsls	r2, r2, #1
 8001004:	431a      	orrs	r2, r3
 8001006:	687b      	ldr	r3, [r7, #4]
 8001008:	639a      	str	r2, [r3, #56]	; 0x38
 800100a:	687b      	ldr	r3, [r7, #4]
 800100c:	2200      	movs	r2, #0
 800100e:	63da      	str	r2, [r3, #60]	; 0x3c
 8001010:	687b      	ldr	r3, [r7, #4]
 8001012:	2234      	movs	r2, #52	; 0x34
 8001014:	2100      	movs	r1, #0
 8001016:	5499      	strb	r1, [r3, r2]
 8001018:	687b      	ldr	r3, [r7, #4]
 800101a:	681b      	ldr	r3, [r3, #0]
 800101c:	221c      	movs	r2, #28
 800101e:	601a      	str	r2, [r3, #0]
 8001020:	687b      	ldr	r3, [r7, #4]
 8001022:	681b      	ldr	r3, [r3, #0]
 8001024:	689a      	ldr	r2, [r3, #8]
 8001026:	687b      	ldr	r3, [r7, #4]
 8001028:	681b      	ldr	r3, [r3, #0]
 800102a:	2104      	movs	r1, #4
 800102c:	430a      	orrs	r2, r1
 800102e:	609a      	str	r2, [r3, #8]
 8001030:	e003      	b.n	800103a <HAL_ADC_Start+0x96>
 8001032:	230f      	movs	r3, #15
 8001034:	18fb      	adds	r3, r7, r3
 8001036:	2202      	movs	r2, #2
 8001038:	701a      	strb	r2, [r3, #0]
 800103a:	230f      	movs	r3, #15
 800103c:	18fb      	adds	r3, r7, r3
 800103e:	781b      	ldrb	r3, [r3, #0]
 8001040:	0018      	movs	r0, r3
 8001042:	46bd      	mov	sp, r7
 8001044:	b005      	add	sp, #20
 8001046:	bd90      	pop	{r4, r7, pc}
 8001048:	fffff0fe 	.word	0xfffff0fe

0800104c <HAL_ADC_PollForConversion>:
 800104c:	b580      	push	{r7, lr}
 800104e:	b084      	sub	sp, #16
 8001050:	af00      	add	r7, sp, #0
 8001052:	6078      	str	r0, [r7, #4]
 8001054:	6039      	str	r1, [r7, #0]
 8001056:	687b      	ldr	r3, [r7, #4]
 8001058:	695b      	ldr	r3, [r3, #20]
 800105a:	2b08      	cmp	r3, #8
 800105c:	d102      	bne.n	8001064 <HAL_ADC_PollForConversion+0x18>
 800105e:	2308      	movs	r3, #8
 8001060:	60fb      	str	r3, [r7, #12]
 8001062:	e014      	b.n	800108e <HAL_ADC_PollForConversion+0x42>
 8001064:	687b      	ldr	r3, [r7, #4]
 8001066:	681b      	ldr	r3, [r3, #0]
 8001068:	68db      	ldr	r3, [r3, #12]
 800106a:	2201      	movs	r2, #1
 800106c:	4013      	ands	r3, r2
 800106e:	2b01      	cmp	r3, #1
 8001070:	d10b      	bne.n	800108a <HAL_ADC_PollForConversion+0x3e>
 8001072:	687b      	ldr	r3, [r7, #4]
 8001074:	6b9b      	ldr	r3, [r3, #56]	; 0x38
 8001076:	2220      	movs	r2, #32
 8001078:	431a      	orrs	r2, r3
 800107a:	687b      	ldr	r3, [r7, #4]
 800107c:	639a      	str	r2, [r3, #56]	; 0x38
 800107e:	687b      	ldr	r3, [r7, #4]
 8001080:	2234      	movs	r2, #52	; 0x34
 8001082:	2100      	movs	r1, #0
 8001084:	5499      	strb	r1, [r3, r2]
 8001086:	2301      	movs	r3, #1
 8001088:	e071      	b.n	800116e <HAL_ADC_PollForConversion+0x122>
 800108a:	230c      	movs	r3, #12
 800108c:	60fb      	str	r3, [r7, #12]
 800108e:	f7ff fe1b 	bl	8000cc8 <HAL_GetTick>
 8001092:	0003      	movs	r3, r0
 8001094:	60bb      	str	r3, [r7, #8]
 8001096:	e01f      	b.n	80010d8 <HAL_ADC_PollForConversion+0x8c>
 8001098:	683b      	ldr	r3, [r7, #0]
 800109a:	3301      	adds	r3, #1
 800109c:	d01c      	beq.n	80010d8 <HAL_ADC_PollForConversion+0x8c>
 800109e:	683b      	ldr	r3, [r7, #0]
 80010a0:	2b00      	cmp	r3, #0
 80010a2:	d007      	beq.n	80010b4 <HAL_ADC_PollForConversion+0x68>
 80010a4:	f7ff fe10 	bl	8000cc8 <HAL_GetTick>
 80010a8:	0002      	movs	r2, r0
 80010aa:	68bb      	ldr	r3, [r7, #8]
 80010ac:	1ad3      	subs	r3, r2, r3
 80010ae:	683a      	ldr	r2, [r7, #0]
 80010b0:	429a      	cmp	r2, r3
 80010b2:	d211      	bcs.n	80010d8 <HAL_ADC_PollForConversion+0x8c>
 80010b4:	687b      	ldr	r3, [r7, #4]
 80010b6:	681b      	ldr	r3, [r3, #0]
 80010b8:	681b      	ldr	r3, [r3, #0]
 80010ba:	68fa      	ldr	r2, [r7, #12]
 80010bc:	4013      	ands	r3, r2
 80010be:	d10b      	bne.n	80010d8 <HAL_ADC_PollForConversion+0x8c>
 80010c0:	687b      	ldr	r3, [r7, #4]
 80010c2:	6b9b      	ldr	r3, [r3, #56]	; 0x38
 80010c4:	2204      	movs	r2, #4
 80010c6:	431a      	orrs	r2, r3
 80010c8:	687b      	ldr	r3, [r7, #4]
 80010ca:	639a      	str	r2, [r3, #56]	; 0x38
 80010cc:	687b      	ldr	r3, [r7, #4]
 80010ce:	2234      	movs	r2, #52	; 0x34
 80010d0:	2100      	movs	r1, #0
 80010d2:	5499      	strb	r1, [r3, r2]
 80010d4:	2303      	movs	r3, #3
 80010d6:	e04a      	b.n	800116e <HAL_ADC_PollForConversion+0x122>
 80010d8:	687b      	ldr	r3, [r7, #4]
 80010da:	681b      	ldr	r3, [r3, #0]
 80010dc:	681b      	ldr	r3, [r3, #0]
 80010de:	68fa      	ldr	r2, [r7, #12]
 80010e0:	4013      	ands	r3, r2
 80010e2:	d0d9      	beq.n	8001098 <HAL_ADC_PollForConversion+0x4c>
 80010e4:	687b      	ldr	r3, [r7, #4]
 80010e6:	6b9b      	ldr	r3, [r3, #56]	; 0x38
 80010e8:	2280      	movs	r2, #128	; 0x80
 80010ea:	0092      	lsls	r2, r2, #2
 80010ec:	431a      	orrs	r2, r3
 80010ee:	687b      	ldr	r3, [r7, #4]
 80010f0:	639a      	str	r2, [r3, #56]	; 0x38
 80010f2:	687b      	ldr	r3, [r7, #4]
 80010f4:	681b      	ldr	r3, [r3, #0]
 80010f6:	68da      	ldr	r2, [r3, #12]
 80010f8:	23c0      	movs	r3, #192	; 0xc0
 80010fa:	011b      	lsls	r3, r3, #4
 80010fc:	4013      	ands	r3, r2
 80010fe:	d12d      	bne.n	800115c <HAL_ADC_PollForConversion+0x110>
 8001100:	687b      	ldr	r3, [r7, #4]
 8001102:	7e9b      	ldrb	r3, [r3, #26]
 8001104:	2b00      	cmp	r3, #0
 8001106:	d129      	bne.n	800115c <HAL_ADC_PollForConversion+0x110>
 8001108:	687b      	ldr	r3, [r7, #4]
 800110a:	681b      	ldr	r3, [r3, #0]
 800110c:	681b      	ldr	r3, [r3, #0]
 800110e:	2208      	movs	r2, #8
 8001110:	4013      	ands	r3, r2
 8001112:	2b08      	cmp	r3, #8
 8001114:	d122      	bne.n	800115c <HAL_ADC_PollForConversion+0x110>
 8001116:	687b      	ldr	r3, [r7, #4]
 8001118:	681b      	ldr	r3, [r3, #0]
 800111a:	689b      	ldr	r3, [r3, #8]
 800111c:	2204      	movs	r2, #4
 800111e:	4013      	ands	r3, r2
 8001120:	d110      	bne.n	8001144 <HAL_ADC_PollForConversion+0xf8>
 8001122:	687b      	ldr	r3, [r7, #4]
 8001124:	681b      	ldr	r3, [r3, #0]
 8001126:	685a      	ldr	r2, [r3, #4]
 8001128:	687b      	ldr	r3, [r7, #4]
 800112a:	681b      	ldr	r3, [r3, #0]
 800112c:	210c      	movs	r1, #12
 800112e:	438a      	bics	r2, r1
 8001130:	605a      	str	r2, [r3, #4]
 8001132:	687b      	ldr	r3, [r7, #4]
 8001134:	6b9b      	ldr	r3, [r3, #56]	; 0x38
 8001136:	4a10      	ldr	r2, [pc, #64]	; (8001178 <HAL_ADC_PollForConversion+0x12c>)
 8001138:	4013      	ands	r3, r2
 800113a:	2201      	movs	r2, #1
 800113c:	431a      	orrs	r2, r3
 800113e:	687b      	ldr	r3, [r7, #4]
 8001140:	639a      	str	r2, [r3, #56]	; 0x38
 8001142:	e00b      	b.n	800115c <HAL_ADC_PollForConversion+0x110>
 8001144:	687b      	ldr	r3, [r7, #4]
 8001146:	6b9b      	ldr	r3, [r3, #56]	; 0x38
 8001148:	2220      	movs	r2, #32
 800114a:	431a      	orrs	r2, r3
 800114c:	687b      	ldr	r3, [r7, #4]
 800114e:	639a      	str	r2, [r3, #56]	; 0x38
 8001150:	687b      	ldr	r3, [r7, #4]
 8001152:	6bdb      	ldr	r3, [r3, #60]	; 0x3c
 8001154:	2201      	movs	r2, #1
 8001156:	431a      	orrs	r2, r3
 8001158:	687b      	ldr	r3, [r7, #4]
 800115a:	63da      	str	r2, [r3, #60]	; 0x3c
 800115c:	687b      	ldr	r3, [r7, #4]
 800115e:	7e1b      	ldrb	r3, [r3, #24]
 8001160:	2b00      	cmp	r3, #0
 8001162:	d103      	bne.n	800116c <HAL_ADC_PollForConversion+0x120>
 8001164:	687b      	ldr	r3, [r7, #4]
 8001166:	681b      	ldr	r3, [r3, #0]
 8001168:	220c      	movs	r2, #12
 800116a:	601a      	str	r2, [r3, #0]
 800116c:	2300      	movs	r3, #0
 800116e:	0018      	movs	r0, r3
 8001170:	46bd      	mov	sp, r7
 8001172:	b004      	add	sp, #16
 8001174:	bd80      	pop	{r7, pc}
 8001176:	46c0      	nop			; (mov r8, r8)
 8001178:	fffffefe 	.word	0xfffffefe

0800117c <HAL_ADC_GetValue>:
 800117c:	b580      	push	{r7, lr}
 800117e:	b082      	sub	sp, #8
 8001180:	af00      	add	r7, sp, #0
 8001182:	6078      	str	r0, [r7, #4]
 8001184:	687b      	ldr	r3, [r7, #4]
 8001186:	681b      	ldr	r3, [r3, #0]
 8001188:	6c1b      	ldr	r3, [r3, #64]	; 0x40
 800118a:	0018      	movs	r0, r3
 800118c:	46bd      	mov	sp, r7
 800118e:	b002      	add	sp, #8
 8001190:	bd80      	pop	{r7, pc}
	...

08001194 <HAL_ADC_IRQHandler>:
 8001194:	b580      	push	{r7, lr}
 8001196:	b082      	sub	sp, #8
 8001198:	af00      	add	r7, sp, #0
 800119a:	6078      	str	r0, [r7, #4]
 800119c:	687b      	ldr	r3, [r7, #4]
 800119e:	681b      	ldr	r3, [r3, #0]
 80011a0:	681b      	ldr	r3, [r3, #0]
 80011a2:	2204      	movs	r2, #4
 80011a4:	4013      	ands	r3, r2
 80011a6:	2b04      	cmp	r3, #4
 80011a8:	d106      	bne.n	80011b8 <HAL_ADC_IRQHandler+0x24>
 80011aa:	687b      	ldr	r3, [r7, #4]
 80011ac:	681b      	ldr	r3, [r3, #0]
 80011ae:	685b      	ldr	r3, [r3, #4]
 80011b0:	2204      	movs	r2, #4
 80011b2:	4013      	ands	r3, r2
 80011b4:	2b04      	cmp	r3, #4
 80011b6:	d00d      	beq.n	80011d4 <HAL_ADC_IRQHandler+0x40>
 80011b8:	687b      	ldr	r3, [r7, #4]
 80011ba:	681b      	ldr	r3, [r3, #0]
 80011bc:	681b      	ldr	r3, [r3, #0]
 80011be:	2208      	movs	r2, #8
 80011c0:	4013      	ands	r3, r2
 80011c2:	2b08      	cmp	r3, #8
 80011c4:	d14f      	bne.n	8001266 <HAL_ADC_IRQHandler+0xd2>
 80011c6:	687b      	ldr	r3, [r7, #4]
 80011c8:	681b      	ldr	r3, [r3, #0]
 80011ca:	685b      	ldr	r3, [r3, #4]
 80011cc:	2208      	movs	r2, #8
 80011ce:	4013      	ands	r3, r2
 80011d0:	2b08      	cmp	r3, #8
 80011d2:	d148      	bne.n	8001266 <HAL_ADC_IRQHandler+0xd2>
 80011d4:	687b      	ldr	r3, [r7, #4]
 80011d6:	6b9b      	ldr	r3, [r3, #56]	; 0x38
 80011d8:	2210      	movs	r2, #16
 80011da:	4013      	ands	r3, r2
 80011dc:	d106      	bne.n	80011ec <HAL_ADC_IRQHandler+0x58>
 80011de:	687b      	ldr	r3, [r7, #4]
 80011e0:	6b9b      	ldr	r3, [r3, #56]	; 0x38
 80011e2:	2280      	movs	r2, #128	; 0x80
 80011e4:	0092      	lsls	r2, r2, #2
 80011e6:	431a      	orrs	r2, r3
 80011e8:	687b      	ldr	r3, [r7, #4]
 80011ea:	639a      	str	r2, [r3, #56]	; 0x38
 80011ec:	687b      	ldr	r3, [r7, #4]
 80011ee:	681b      	ldr	r3, [r3, #0]
 80011f0:	68da      	ldr	r2, [r3, #12]
 80011f2:	23c0      	movs	r3, #192	; 0xc0
 80011f4:	011b      	lsls	r3, r3, #4
 80011f6:	4013      	ands	r3, r2
 80011f8:	d12d      	bne.n	8001256 <HAL_ADC_IRQHandler+0xc2>
 80011fa:	687b      	ldr	r3, [r7, #4]
 80011fc:	7e9b      	ldrb	r3, [r3, #26]
 80011fe:	2b00      	cmp	r3, #0
 8001200:	d129      	bne.n	8001256 <HAL_ADC_IRQHandler+0xc2>
 8001202:	687b      	ldr	r3, [r7, #4]
 8001204:	681b      	ldr	r3, [r3, #0]
 8001206:	681b      	ldr	r3, [r3, #0]
 8001208:	2208      	movs	r2, #8
 800120a:	4013      	ands	r3, r2
 800120c:	2b08      	cmp	r3, #8
 800120e:	d122      	bne.n	8001256 <HAL_ADC_IRQHandler+0xc2>
 8001210:	687b      	ldr	r3, [r7, #4]
 8001212:	681b      	ldr	r3, [r3, #0]
 8001214:	689b      	ldr	r3, [r3, #8]
 8001216:	2204      	movs	r2, #4
 8001218:	4013      	ands	r3, r2
 800121a:	d110      	bne.n	800123e <HAL_ADC_IRQHandler+0xaa>
 800121c:	687b      	ldr	r3, [r7, #4]
 800121e:	681b      	ldr	r3, [r3, #0]
 8001220:	685a      	ldr	r2, [r3, #4]
 8001222:	687b      	ldr	r3, [r7, #4]
 8001224:	681b      	ldr	r3, [r3, #0]
 8001226:	210c      	movs	r1, #12
 8001228:	438a      	bics	r2, r1
 800122a:	605a      	str	r2, [r3, #4]
 800122c:	687b      	ldr	r3, [r7, #4]
 800122e:	6b9b      	ldr	r3, [r3, #56]	; 0x38
 8001230:	4a33      	ldr	r2, [pc, #204]	; (8001300 <HAL_ADC_IRQHandler+0x16c>)
 8001232:	4013      	ands	r3, r2
 8001234:	2201      	movs	r2, #1
 8001236:	431a      	orrs	r2, r3
 8001238:	687b      	ldr	r3, [r7, #4]
 800123a:	639a      	str	r2, [r3, #56]	; 0x38
 800123c:	e00b      	b.n	8001256 <HAL_ADC_IRQHandler+0xc2>
 800123e:	687b      	ldr	r3, [r7, #4]
 8001240:	6b9b      	ldr	r3, [r3, #56]	; 0x38
 8001242:	2220      	movs	r2, #32
 8001244:	431a      	orrs	r2, r3
 8001246:	687b      	ldr	r3, [r7, #4]
 8001248:	639a      	str	r2, [r3, #56]	; 0x38
 800124a:	687b      	ldr	r3, [r7, #4]
 800124c:	6bdb      	ldr	r3, [r3, #60]	; 0x3c
 800124e:	2201      	movs	r2, #1
 8001250:	431a      	orrs	r2, r3
 8001252:	687b      	ldr	r3, [r7, #4]
 8001254:	63da      	str	r2, [r3, #60]	; 0x3c
 8001256:	687b      	ldr	r3, [r7, #4]
 8001258:	0018      	movs	r0, r3
 800125a:	f000 f853 	bl	8001304 <HAL_ADC_ConvCpltCallback>
 800125e:	687b      	ldr	r3, [r7, #4]
 8001260:	681b      	ldr	r3, [r3, #0]
 8001262:	220c      	movs	r2, #12
 8001264:	601a      	str	r2, [r3, #0]
 8001266:	687b      	ldr	r3, [r7, #4]
 8001268:	681b      	ldr	r3, [r3, #0]
 800126a:	681b      	ldr	r3, [r3, #0]
 800126c:	2280      	movs	r2, #128	; 0x80
 800126e:	4013      	ands	r3, r2
 8001270:	2b80      	cmp	r3, #128	; 0x80
 8001272:	d115      	bne.n	80012a0 <HAL_ADC_IRQHandler+0x10c>
 8001274:	687b      	ldr	r3, [r7, #4]
 8001276:	681b      	ldr	r3, [r3, #0]
 8001278:	685b      	ldr	r3, [r3, #4]
 800127a:	2280      	movs	r2, #128	; 0x80
 800127c:	4013      	ands	r3, r2
 800127e:	2b80      	cmp	r3, #128	; 0x80
 8001280:	d10e      	bne.n	80012a0 <HAL_ADC_IRQHandler+0x10c>
 8001282:	687b      	ldr	r3, [r7, #4]
 8001284:	6b9b      	ldr	r3, [r3, #56]	; 0x38
 8001286:	2280      	movs	r2, #128	; 0x80
 8001288:	0252      	lsls	r2, r2, #9
 800128a:	431a      	orrs	r2, r3
 800128c:	687b      	ldr	r3, [r7, #4]
 800128e:	639a      	str	r2, [r3, #56]	; 0x38
 8001290:	687b      	ldr	r3, [r7, #4]
 8001292:	0018      	movs	r0, r3
 8001294:	f000 f83e 	bl	8001314 <HAL_ADC_LevelOutOfWindowCallback>
 8001298:	687b      	ldr	r3, [r7, #4]
 800129a:	681b      	ldr	r3, [r3, #0]
 800129c:	2280      	movs	r2, #128	; 0x80
 800129e:	601a      	str	r2, [r3, #0]
 80012a0:	687b      	ldr	r3, [r7, #4]
 80012a2:	681b      	ldr	r3, [r3, #0]
 80012a4:	681b      	ldr	r3, [r3, #0]
 80012a6:	2210      	movs	r2, #16
 80012a8:	4013      	ands	r3, r2
 80012aa:	2b10      	cmp	r3, #16
 80012ac:	d123      	bne.n	80012f6 <HAL_ADC_IRQHandler+0x162>
 80012ae:	687b      	ldr	r3, [r7, #4]
 80012b0:	681b      	ldr	r3, [r3, #0]
 80012b2:	685b      	ldr	r3, [r3, #4]
 80012b4:	2210      	movs	r2, #16
 80012b6:	4013      	ands	r3, r2
 80012b8:	2b10      	cmp	r3, #16
 80012ba:	d11c      	bne.n	80012f6 <HAL_ADC_IRQHandler+0x162>
 80012bc:	687b      	ldr	r3, [r7, #4]
 80012be:	6a9b      	ldr	r3, [r3, #40]	; 0x28
 80012c0:	2b01      	cmp	r3, #1
 80012c2:	d006      	beq.n	80012d2 <HAL_ADC_IRQHandler+0x13e>
 80012c4:	687b      	ldr	r3, [r7, #4]
 80012c6:	681b      	ldr	r3, [r3, #0]
 80012c8:	68db      	ldr	r3, [r3, #12]
 80012ca:	2201      	movs	r2, #1
 80012cc:	4013      	ands	r3, r2
 80012ce:	2b01      	cmp	r3, #1
 80012d0:	d10d      	bne.n	80012ee <HAL_ADC_IRQHandler+0x15a>
 80012d2:	687b      	ldr	r3, [r7, #4]
 80012d4:	6bdb      	ldr	r3, [r3, #60]	; 0x3c
 80012d6:	2202      	movs	r2, #2
 80012d8:	431a      	orrs	r2, r3
 80012da:	687b      	ldr	r3, [r7, #4]
 80012dc:	63da      	str	r2, [r3, #60]	; 0x3c
 80012de:	687b      	ldr	r3, [r7, #4]
 80012e0:	681b      	ldr	r3, [r3, #0]
 80012e2:	2210      	movs	r2, #16
 80012e4:	601a      	str	r2, [r3, #0]
 80012e6:	687b      	ldr	r3, [r7, #4]
 80012e8:	0018      	movs	r0, r3
 80012ea:	f000 f81b 	bl	8001324 <HAL_ADC_ErrorCallback>
 80012ee:	687b      	ldr	r3, [r7, #4]
 80012f0:	681b      	ldr	r3, [r3, #0]
 80012f2:	2210      	movs	r2, #16
 80012f4:	601a      	str	r2, [r3, #0]
 80012f6:	46c0      	nop			; (mov r8, r8)
 80012f8:	46bd      	mov	sp, r7
 80012fa:	b002      	add	sp, #8
 80012fc:	bd80      	pop	{r7, pc}
 80012fe:	46c0      	nop			; (mov r8, r8)
 8001300:	fffffefe 	.word	0xfffffefe

08001304 <HAL_ADC_ConvCpltCallback>:
 8001304:	b580      	push	{r7, lr}
 8001306:	b082      	sub	sp, #8
 8001308:	af00      	add	r7, sp, #0
 800130a:	6078      	str	r0, [r7, #4]
 800130c:	46c0      	nop			; (mov r8, r8)
 800130e:	46bd      	mov	sp, r7
 8001310:	b002      	add	sp, #8
 8001312:	bd80      	pop	{r7, pc}

08001314 <HAL_ADC_LevelOutOfWindowCallback>:
 8001314:	b580      	push	{r7, lr}
 8001316:	b082      	sub	sp, #8
 8001318:	af00      	add	r7, sp, #0
 800131a:	6078      	str	r0, [r7, #4]
 800131c:	46c0      	nop			; (mov r8, r8)
 800131e:	46bd      	mov	sp, r7
 8001320:	b002      	add	sp, #8
 8001322:	bd80      	pop	{r7, pc}

08001324 <HAL_ADC_ErrorCallback>:
 8001324:	b580      	push	{r7, lr}
 8001326:	b082      	sub	sp, #8
 8001328:	af00      	add	r7, sp, #0
 800132a:	6078      	str	r0, [r7, #4]
 800132c:	46c0      	nop			; (mov r8, r8)
 800132e:	46bd      	mov	sp, r7
 8001330:	b002      	add	sp, #8
 8001332:	bd80      	pop	{r7, pc}

08001334 <HAL_ADC_ConfigChannel>:
 8001334:	b580      	push	{r7, lr}
 8001336:	b084      	sub	sp, #16
 8001338:	af00      	add	r7, sp, #0
 800133a:	6078      	str	r0, [r7, #4]
 800133c:	6039      	str	r1, [r7, #0]
 800133e:	230f      	movs	r3, #15
 8001340:	18fb      	adds	r3, r7, r3
 8001342:	2200      	movs	r2, #0
 8001344:	701a      	strb	r2, [r3, #0]
 8001346:	2300      	movs	r3, #0
 8001348:	60bb      	str	r3, [r7, #8]
 800134a:	687b      	ldr	r3, [r7, #4]
 800134c:	6ada      	ldr	r2, [r3, #44]	; 0x2c
 800134e:	2380      	movs	r3, #128	; 0x80
 8001350:	055b      	lsls	r3, r3, #21
 8001352:	429a      	cmp	r2, r3
 8001354:	d011      	beq.n	800137a <HAL_ADC_ConfigChannel+0x46>
 8001356:	687b      	ldr	r3, [r7, #4]
 8001358:	6adb      	ldr	r3, [r3, #44]	; 0x2c
 800135a:	2b01      	cmp	r3, #1
 800135c:	d00d      	beq.n	800137a <HAL_ADC_ConfigChannel+0x46>
 800135e:	687b      	ldr	r3, [r7, #4]
 8001360:	6adb      	ldr	r3, [r3, #44]	; 0x2c
 8001362:	2b02      	cmp	r3, #2
 8001364:	d009      	beq.n	800137a <HAL_ADC_ConfigChannel+0x46>
 8001366:	687b      	ldr	r3, [r7, #4]
 8001368:	6adb      	ldr	r3, [r3, #44]	; 0x2c
 800136a:	2b03      	cmp	r3, #3
 800136c:	d005      	beq.n	800137a <HAL_ADC_ConfigChannel+0x46>
 800136e:	687b      	ldr	r3, [r7, #4]
 8001370:	6adb      	ldr	r3, [r3, #44]	; 0x2c
 8001372:	2b04      	cmp	r3, #4
 8001374:	d001      	beq.n	800137a <HAL_ADC_ConfigChannel+0x46>
 8001376:	687b      	ldr	r3, [r7, #4]
 8001378:	6adb      	ldr	r3, [r3, #44]	; 0x2c
 800137a:	687b      	ldr	r3, [r7, #4]
 800137c:	2234      	movs	r2, #52	; 0x34
 800137e:	5c9b      	ldrb	r3, [r3, r2]
 8001380:	2b01      	cmp	r3, #1
 8001382:	d101      	bne.n	8001388 <HAL_ADC_ConfigChannel+0x54>
 8001384:	2302      	movs	r3, #2
 8001386:	e0d0      	b.n	800152a <HAL_ADC_ConfigChannel+0x1f6>
 8001388:	687b      	ldr	r3, [r7, #4]
 800138a:	2234      	movs	r2, #52	; 0x34
 800138c:	2101      	movs	r1, #1
 800138e:	5499      	strb	r1, [r3, r2]
 8001390:	687b      	ldr	r3, [r7, #4]
 8001392:	681b      	ldr	r3, [r3, #0]
 8001394:	689b      	ldr	r3, [r3, #8]
 8001396:	2204      	movs	r2, #4
 8001398:	4013      	ands	r3, r2
 800139a:	d000      	beq.n	800139e <HAL_ADC_ConfigChannel+0x6a>
 800139c:	e0b4      	b.n	8001508 <HAL_ADC_ConfigChannel+0x1d4>
 800139e:	683b      	ldr	r3, [r7, #0]
 80013a0:	685b      	ldr	r3, [r3, #4]
 80013a2:	4a64      	ldr	r2, [pc, #400]	; (8001534 <HAL_ADC_ConfigChannel+0x200>)
 80013a4:	4293      	cmp	r3, r2
 80013a6:	d100      	bne.n	80013aa <HAL_ADC_ConfigChannel+0x76>
 80013a8:	e082      	b.n	80014b0 <HAL_ADC_ConfigChannel+0x17c>
 80013aa:	687b      	ldr	r3, [r7, #4]
 80013ac:	681b      	ldr	r3, [r3, #0]
 80013ae:	6a99      	ldr	r1, [r3, #40]	; 0x28
 80013b0:	683b      	ldr	r3, [r7, #0]
 80013b2:	681b      	ldr	r3, [r3, #0]
 80013b4:	2201      	movs	r2, #1
 80013b6:	409a      	lsls	r2, r3
 80013b8:	687b      	ldr	r3, [r7, #4]
 80013ba:	681b      	ldr	r3, [r3, #0]
 80013bc:	430a      	orrs	r2, r1
 80013be:	629a      	str	r2, [r3, #40]	; 0x28
 80013c0:	687b      	ldr	r3, [r7, #4]
 80013c2:	6ada      	ldr	r2, [r3, #44]	; 0x2c
 80013c4:	2380      	movs	r3, #128	; 0x80
 80013c6:	055b      	lsls	r3, r3, #21
 80013c8:	429a      	cmp	r2, r3
 80013ca:	d037      	beq.n	800143c <HAL_ADC_ConfigChannel+0x108>
 80013cc:	687b      	ldr	r3, [r7, #4]
 80013ce:	6adb      	ldr	r3, [r3, #44]	; 0x2c
 80013d0:	2b01      	cmp	r3, #1
 80013d2:	d033      	beq.n	800143c <HAL_ADC_ConfigChannel+0x108>
 80013d4:	687b      	ldr	r3, [r7, #4]
 80013d6:	6adb      	ldr	r3, [r3, #44]	; 0x2c
 80013d8:	2b02      	cmp	r3, #2
 80013da:	d02f      	beq.n	800143c <HAL_ADC_ConfigChannel+0x108>
 80013dc:	687b      	ldr	r3, [r7, #4]
 80013de:	6adb      	ldr	r3, [r3, #44]	; 0x2c
 80013e0:	2b03      	cmp	r3, #3
 80013e2:	d02b      	beq.n	800143c <HAL_ADC_ConfigChannel+0x108>
 80013e4:	687b      	ldr	r3, [r7, #4]
 80013e6:	6adb      	ldr	r3, [r3, #44]	; 0x2c
 80013e8:	2b04      	cmp	r3, #4
 80013ea:	d027      	beq.n	800143c <HAL_ADC_ConfigChannel+0x108>
 80013ec:	687b      	ldr	r3, [r7, #4]
 80013ee:	6adb      	ldr	r3, [r3, #44]	; 0x2c
 80013f0:	2b05      	cmp	r3, #5
 80013f2:	d023      	beq.n	800143c <HAL_ADC_ConfigChannel+0x108>
 80013f4:	687b      	ldr	r3, [r7, #4]
 80013f6:	6adb      	ldr	r3, [r3, #44]	; 0x2c
 80013f8:	2b06      	cmp	r3, #6
 80013fa:	d01f      	beq.n	800143c <HAL_ADC_ConfigChannel+0x108>
 80013fc:	687b      	ldr	r3, [r7, #4]
 80013fe:	6adb      	ldr	r3, [r3, #44]	; 0x2c
 8001400:	2b07      	cmp	r3, #7
 8001402:	d01b      	beq.n	800143c <HAL_ADC_ConfigChannel+0x108>
 8001404:	683b      	ldr	r3, [r7, #0]
 8001406:	689a      	ldr	r2, [r3, #8]
 8001408:	687b      	ldr	r3, [r7, #4]
 800140a:	681b      	ldr	r3, [r3, #0]
 800140c:	695b      	ldr	r3, [r3, #20]
 800140e:	2107      	movs	r1, #7
 8001410:	400b      	ands	r3, r1
 8001412:	429a      	cmp	r2, r3
 8001414:	d012      	beq.n	800143c <HAL_ADC_ConfigChannel+0x108>
 8001416:	687b      	ldr	r3, [r7, #4]
 8001418:	681b      	ldr	r3, [r3, #0]
 800141a:	695a      	ldr	r2, [r3, #20]
 800141c:	687b      	ldr	r3, [r7, #4]
 800141e:	681b      	ldr	r3, [r3, #0]
 8001420:	2107      	movs	r1, #7
 8001422:	438a      	bics	r2, r1
 8001424:	615a      	str	r2, [r3, #20]
 8001426:	687b      	ldr	r3, [r7, #4]
 8001428:	681b      	ldr	r3, [r3, #0]
 800142a:	6959      	ldr	r1, [r3, #20]
 800142c:	683b      	ldr	r3, [r7, #0]
 800142e:	689b      	ldr	r3, [r3, #8]
 8001430:	2207      	movs	r2, #7
 8001432:	401a      	ands	r2, r3
 8001434:	687b      	ldr	r3, [r7, #4]
 8001436:	681b      	ldr	r3, [r3, #0]
 8001438:	430a      	orrs	r2, r1
 800143a:	615a      	str	r2, [r3, #20]
 800143c:	683b      	ldr	r3, [r7, #0]
 800143e:	681b      	ldr	r3, [r3, #0]
 8001440:	2b10      	cmp	r3, #16
 8001442:	d007      	beq.n	8001454 <HAL_ADC_ConfigChannel+0x120>
 8001444:	683b      	ldr	r3, [r7, #0]
 8001446:	681b      	ldr	r3, [r3, #0]
 8001448:	2b11      	cmp	r3, #17
 800144a:	d003      	beq.n	8001454 <HAL_ADC_ConfigChannel+0x120>
 800144c:	683b      	ldr	r3, [r7, #0]
 800144e:	681b      	ldr	r3, [r3, #0]
 8001450:	2b12      	cmp	r3, #18
 8001452:	d163      	bne.n	800151c <HAL_ADC_ConfigChannel+0x1e8>
 8001454:	4b38      	ldr	r3, [pc, #224]	; (8001538 <HAL_ADC_ConfigChannel+0x204>)
 8001456:	6819      	ldr	r1, [r3, #0]
 8001458:	683b      	ldr	r3, [r7, #0]
 800145a:	681b      	ldr	r3, [r3, #0]
 800145c:	2b10      	cmp	r3, #16
 800145e:	d009      	beq.n	8001474 <HAL_ADC_ConfigChannel+0x140>
 8001460:	683b      	ldr	r3, [r7, #0]
 8001462:	681b      	ldr	r3, [r3, #0]
 8001464:	2b11      	cmp	r3, #17
 8001466:	d102      	bne.n	800146e <HAL_ADC_ConfigChannel+0x13a>
 8001468:	2380      	movs	r3, #128	; 0x80
 800146a:	03db      	lsls	r3, r3, #15
 800146c:	e004      	b.n	8001478 <HAL_ADC_ConfigChannel+0x144>
 800146e:	2380      	movs	r3, #128	; 0x80
 8001470:	045b      	lsls	r3, r3, #17
 8001472:	e001      	b.n	8001478 <HAL_ADC_ConfigChannel+0x144>
 8001474:	2380      	movs	r3, #128	; 0x80
 8001476:	041b      	lsls	r3, r3, #16
 8001478:	4a2f      	ldr	r2, [pc, #188]	; (8001538 <HAL_ADC_ConfigChannel+0x204>)
 800147a:	430b      	orrs	r3, r1
 800147c:	6013      	str	r3, [r2, #0]
 800147e:	683b      	ldr	r3, [r7, #0]
 8001480:	681b      	ldr	r3, [r3, #0]
 8001482:	2b10      	cmp	r3, #16
 8001484:	d14a      	bne.n	800151c <HAL_ADC_ConfigChannel+0x1e8>
 8001486:	4b2d      	ldr	r3, [pc, #180]	; (800153c <HAL_ADC_ConfigChannel+0x208>)
 8001488:	681b      	ldr	r3, [r3, #0]
 800148a:	492d      	ldr	r1, [pc, #180]	; (8001540 <HAL_ADC_ConfigChannel+0x20c>)
 800148c:	0018      	movs	r0, r3
 800148e:	f7fe fe45 	bl	800011c <__udivsi3>
 8001492:	0003      	movs	r3, r0
 8001494:	001a      	movs	r2, r3
 8001496:	0013      	movs	r3, r2
 8001498:	009b      	lsls	r3, r3, #2
 800149a:	189b      	adds	r3, r3, r2
 800149c:	005b      	lsls	r3, r3, #1
 800149e:	60bb      	str	r3, [r7, #8]
 80014a0:	e002      	b.n	80014a8 <HAL_ADC_ConfigChannel+0x174>
 80014a2:	68bb      	ldr	r3, [r7, #8]
 80014a4:	3b01      	subs	r3, #1
 80014a6:	60bb      	str	r3, [r7, #8]
 80014a8:	68bb      	ldr	r3, [r7, #8]
 80014aa:	2b00      	cmp	r3, #0
 80014ac:	d1f9      	bne.n	80014a2 <HAL_ADC_ConfigChannel+0x16e>
 80014ae:	e035      	b.n	800151c <HAL_ADC_ConfigChannel+0x1e8>
 80014b0:	687b      	ldr	r3, [r7, #4]
 80014b2:	681b      	ldr	r3, [r3, #0]
 80014b4:	6a9a      	ldr	r2, [r3, #40]	; 0x28
 80014b6:	683b      	ldr	r3, [r7, #0]
 80014b8:	681b      	ldr	r3, [r3, #0]
 80014ba:	2101      	movs	r1, #1
 80014bc:	4099      	lsls	r1, r3
 80014be:	000b      	movs	r3, r1
 80014c0:	43d9      	mvns	r1, r3
 80014c2:	687b      	ldr	r3, [r7, #4]
 80014c4:	681b      	ldr	r3, [r3, #0]
 80014c6:	400a      	ands	r2, r1
 80014c8:	629a      	str	r2, [r3, #40]	; 0x28
 80014ca:	683b      	ldr	r3, [r7, #0]
 80014cc:	681b      	ldr	r3, [r3, #0]
 80014ce:	2b10      	cmp	r3, #16
 80014d0:	d007      	beq.n	80014e2 <HAL_ADC_ConfigChannel+0x1ae>
 80014d2:	683b      	ldr	r3, [r7, #0]
 80014d4:	681b      	ldr	r3, [r3, #0]
 80014d6:	2b11      	cmp	r3, #17
 80014d8:	d003      	beq.n	80014e2 <HAL_ADC_ConfigChannel+0x1ae>
 80014da:	683b      	ldr	r3, [r7, #0]
 80014dc:	681b      	ldr	r3, [r3, #0]
 80014de:	2b12      	cmp	r3, #18
 80014e0:	d11c      	bne.n	800151c <HAL_ADC_ConfigChannel+0x1e8>
 80014e2:	4b15      	ldr	r3, [pc, #84]	; (8001538 <HAL_ADC_ConfigChannel+0x204>)
 80014e4:	6819      	ldr	r1, [r3, #0]
 80014e6:	683b      	ldr	r3, [r7, #0]
 80014e8:	681b      	ldr	r3, [r3, #0]
 80014ea:	2b10      	cmp	r3, #16
 80014ec:	d007      	beq.n	80014fe <HAL_ADC_ConfigChannel+0x1ca>
 80014ee:	683b      	ldr	r3, [r7, #0]
 80014f0:	681b      	ldr	r3, [r3, #0]
 80014f2:	2b11      	cmp	r3, #17
 80014f4:	d101      	bne.n	80014fa <HAL_ADC_ConfigChannel+0x1c6>
 80014f6:	4b13      	ldr	r3, [pc, #76]	; (8001544 <HAL_ADC_ConfigChannel+0x210>)
 80014f8:	e002      	b.n	8001500 <HAL_ADC_ConfigChannel+0x1cc>
 80014fa:	4b13      	ldr	r3, [pc, #76]	; (8001548 <HAL_ADC_ConfigChannel+0x214>)
 80014fc:	e000      	b.n	8001500 <HAL_ADC_ConfigChannel+0x1cc>
 80014fe:	4b13      	ldr	r3, [pc, #76]	; (800154c <HAL_ADC_ConfigChannel+0x218>)
 8001500:	4a0d      	ldr	r2, [pc, #52]	; (8001538 <HAL_ADC_ConfigChannel+0x204>)
 8001502:	400b      	ands	r3, r1
 8001504:	6013      	str	r3, [r2, #0]
 8001506:	e009      	b.n	800151c <HAL_ADC_ConfigChannel+0x1e8>
 8001508:	687b      	ldr	r3, [r7, #4]
 800150a:	6b9b      	ldr	r3, [r3, #56]	; 0x38
 800150c:	2220      	movs	r2, #32
 800150e:	431a      	orrs	r2, r3
 8001510:	687b      	ldr	r3, [r7, #4]
 8001512:	639a      	str	r2, [r3, #56]	; 0x38
 8001514:	230f      	movs	r3, #15
 8001516:	18fb      	adds	r3, r7, r3
 8001518:	2201      	movs	r2, #1
 800151a:	701a      	strb	r2, [r3, #0]
 800151c:	687b      	ldr	r3, [r7, #4]
 800151e:	2234      	movs	r2, #52	; 0x34
 8001520:	2100      	movs	r1, #0
 8001522:	5499      	strb	r1, [r3, r2]
 8001524:	230f      	movs	r3, #15
 8001526:	18fb      	adds	r3, r7, r3
 8001528:	781b      	ldrb	r3, [r3, #0]
 800152a:	0018      	movs	r0, r3
 800152c:	46bd      	mov	sp, r7
 800152e:	b004      	add	sp, #16
 8001530:	bd80      	pop	{r7, pc}
 8001532:	46c0      	nop			; (mov r8, r8)
 8001534:	00001001 	.word	0x00001001
 8001538:	40012708 	.word	0x40012708
 800153c:	20000004 	.word	0x20000004
 8001540:	000f4240 	.word	0x000f4240
 8001544:	ffbfffff 	.word	0xffbfffff
 8001548:	feffffff 	.word	0xfeffffff
 800154c:	ff7fffff 	.word	0xff7fffff

08001550 <ADC_Enable>:
 8001550:	b580      	push	{r7, lr}
 8001552:	b084      	sub	sp, #16
 8001554:	af00      	add	r7, sp, #0
 8001556:	6078      	str	r0, [r7, #4]
 8001558:	2300      	movs	r3, #0
 800155a:	60fb      	str	r3, [r7, #12]
 800155c:	2300      	movs	r3, #0
 800155e:	60bb      	str	r3, [r7, #8]
 8001560:	687b      	ldr	r3, [r7, #4]
 8001562:	681b      	ldr	r3, [r3, #0]
 8001564:	689b      	ldr	r3, [r3, #8]
 8001566:	2203      	movs	r2, #3
 8001568:	4013      	ands	r3, r2
 800156a:	2b01      	cmp	r3, #1
 800156c:	d112      	bne.n	8001594 <ADC_Enable+0x44>
 800156e:	687b      	ldr	r3, [r7, #4]
 8001570:	681b      	ldr	r3, [r3, #0]
 8001572:	681b      	ldr	r3, [r3, #0]
 8001574:	2201      	movs	r2, #1
 8001576:	4013      	ands	r3, r2
 8001578:	2b01      	cmp	r3, #1
 800157a:	d009      	beq.n	8001590 <ADC_Enable+0x40>
 800157c:	687b      	ldr	r3, [r7, #4]
 800157e:	681b      	ldr	r3, [r3, #0]
 8001580:	68da      	ldr	r2, [r3, #12]
 8001582:	2380      	movs	r3, #128	; 0x80
 8001584:	021b      	lsls	r3, r3, #8
 8001586:	401a      	ands	r2, r3
 8001588:	2380      	movs	r3, #128	; 0x80
 800158a:	021b      	lsls	r3, r3, #8
 800158c:	429a      	cmp	r2, r3
 800158e:	d101      	bne.n	8001594 <ADC_Enable+0x44>
 8001590:	2301      	movs	r3, #1
 8001592:	e000      	b.n	8001596 <ADC_Enable+0x46>
 8001594:	2300      	movs	r3, #0
 8001596:	2b00      	cmp	r3, #0
 8001598:	d152      	bne.n	8001640 <ADC_Enable+0xf0>
 800159a:	687b      	ldr	r3, [r7, #4]
 800159c:	681b      	ldr	r3, [r3, #0]
 800159e:	689b      	ldr	r3, [r3, #8]
 80015a0:	4a2a      	ldr	r2, [pc, #168]	; (800164c <ADC_Enable+0xfc>)
 80015a2:	4013      	ands	r3, r2
 80015a4:	d00d      	beq.n	80015c2 <ADC_Enable+0x72>
 80015a6:	687b      	ldr	r3, [r7, #4]
 80015a8:	6b9b      	ldr	r3, [r3, #56]	; 0x38
 80015aa:	2210      	movs	r2, #16
 80015ac:	431a      	orrs	r2, r3
 80015ae:	687b      	ldr	r3, [r7, #4]
 80015b0:	639a      	str	r2, [r3, #56]	; 0x38
 80015b2:	687b      	ldr	r3, [r7, #4]
 80015b4:	6bdb      	ldr	r3, [r3, #60]	; 0x3c
 80015b6:	2201      	movs	r2, #1
 80015b8:	431a      	orrs	r2, r3
 80015ba:	687b      	ldr	r3, [r7, #4]
 80015bc:	63da      	str	r2, [r3, #60]	; 0x3c
 80015be:	2301      	movs	r3, #1
 80015c0:	e03f      	b.n	8001642 <ADC_Enable+0xf2>
 80015c2:	687b      	ldr	r3, [r7, #4]
 80015c4:	681b      	ldr	r3, [r3, #0]
 80015c6:	689a      	ldr	r2, [r3, #8]
 80015c8:	687b      	ldr	r3, [r7, #4]
 80015ca:	681b      	ldr	r3, [r3, #0]
 80015cc:	2101      	movs	r1, #1
 80015ce:	430a      	orrs	r2, r1
 80015d0:	609a      	str	r2, [r3, #8]
 80015d2:	4b1f      	ldr	r3, [pc, #124]	; (8001650 <ADC_Enable+0x100>)
 80015d4:	681b      	ldr	r3, [r3, #0]
 80015d6:	491f      	ldr	r1, [pc, #124]	; (8001654 <ADC_Enable+0x104>)
 80015d8:	0018      	movs	r0, r3
 80015da:	f7fe fd9f 	bl	800011c <__udivsi3>
 80015de:	0003      	movs	r3, r0
 80015e0:	60bb      	str	r3, [r7, #8]
 80015e2:	e002      	b.n	80015ea <ADC_Enable+0x9a>
 80015e4:	68bb      	ldr	r3, [r7, #8]
 80015e6:	3b01      	subs	r3, #1
 80015e8:	60bb      	str	r3, [r7, #8]
 80015ea:	68bb      	ldr	r3, [r7, #8]
 80015ec:	2b00      	cmp	r3, #0
 80015ee:	d1f9      	bne.n	80015e4 <ADC_Enable+0x94>
 80015f0:	f7ff fb6a 	bl	8000cc8 <HAL_GetTick>
 80015f4:	0003      	movs	r3, r0
 80015f6:	60fb      	str	r3, [r7, #12]
 80015f8:	e01b      	b.n	8001632 <ADC_Enable+0xe2>
 80015fa:	f7ff fb65 	bl	8000cc8 <HAL_GetTick>
 80015fe:	0002      	movs	r2, r0
 8001600:	68fb      	ldr	r3, [r7, #12]
 8001602:	1ad3      	subs	r3, r2, r3
 8001604:	2b02      	cmp	r3, #2
 8001606:	d914      	bls.n	8001632 <ADC_Enable+0xe2>
 8001608:	687b      	ldr	r3, [r7, #4]
 800160a:	681b      	ldr	r3, [r3, #0]
 800160c:	681b      	ldr	r3, [r3, #0]
 800160e:	2201      	movs	r2, #1
 8001610:	4013      	ands	r3, r2
 8001612:	2b01      	cmp	r3, #1
 8001614:	d00d      	beq.n	8001632 <ADC_Enable+0xe2>
 8001616:	687b      	ldr	r3, [r7, #4]
 8001618:	6b9b      	ldr	r3, [r3, #56]	; 0x38
 800161a:	2210      	movs	r2, #16
 800161c:	431a      	orrs	r2, r3
 800161e:	687b      	ldr	r3, [r7, #4]
 8001620:	639a      	str	r2, [r3, #56]	; 0x38
 8001622:	687b      	ldr	r3, [r7, #4]
 8001624:	6bdb      	ldr	r3, [r3, #60]	; 0x3c
 8001626:	2201      	movs	r2, #1
 8001628:	431a      	orrs	r2, r3
 800162a:	687b      	ldr	r3, [r7, #4]
 800162c:	63da      	str	r2, [r3, #60]	; 0x3c
 800162e:	2301      	movs	r3, #1
 8001630:	e007      	b.n	8001642 <ADC_Enable+0xf2>
 8001632:	687b      	ldr	r3, [r7, #4]
 8001634:	681b      	ldr	r3, [r3, #0]
 8001636:	681b      	ldr	r3, [r3, #0]
 8001638:	2201      	movs	r2, #1
 800163a:	4013      	ands	r3, r2
 800163c:	2b01      	cmp	r3, #1
 800163e:	d1dc      	bne.n	80015fa <ADC_Enable+0xaa>
 8001640:	2300      	movs	r3, #0
 8001642:	0018      	movs	r0, r3
 8001644:	46bd      	mov	sp, r7
 8001646:	b004      	add	sp, #16
 8001648:	bd80      	pop	{r7, pc}
 800164a:	46c0      	nop			; (mov r8, r8)
 800164c:	80000017 	.word	0x80000017
 8001650:	20000004 	.word	0x20000004
 8001654:	000f4240 	.word	0x000f4240

08001658 <HAL_ADCEx_Calibration_Start>:
 8001658:	b580      	push	{r7, lr}
 800165a:	b086      	sub	sp, #24
 800165c:	af00      	add	r7, sp, #0
 800165e:	6078      	str	r0, [r7, #4]
 8001660:	2317      	movs	r3, #23
 8001662:	18fb      	adds	r3, r7, r3
 8001664:	2200      	movs	r2, #0
 8001666:	701a      	strb	r2, [r3, #0]
 8001668:	2300      	movs	r3, #0
 800166a:	613b      	str	r3, [r7, #16]
 800166c:	2300      	movs	r3, #0
 800166e:	60fb      	str	r3, [r7, #12]
 8001670:	687b      	ldr	r3, [r7, #4]
 8001672:	2234      	movs	r2, #52	; 0x34
 8001674:	5c9b      	ldrb	r3, [r3, r2]
 8001676:	2b01      	cmp	r3, #1
 8001678:	d101      	bne.n	800167e <HAL_ADCEx_Calibration_Start+0x26>
 800167a:	2302      	movs	r3, #2
 800167c:	e08d      	b.n	800179a <HAL_ADCEx_Calibration_Start+0x142>
 800167e:	687b      	ldr	r3, [r7, #4]
 8001680:	2234      	movs	r2, #52	; 0x34
 8001682:	2101      	movs	r1, #1
 8001684:	5499      	strb	r1, [r3, r2]
 8001686:	687b      	ldr	r3, [r7, #4]
 8001688:	681b      	ldr	r3, [r3, #0]
 800168a:	689b      	ldr	r3, [r3, #8]
 800168c:	2203      	movs	r2, #3
 800168e:	4013      	ands	r3, r2
 8001690:	2b01      	cmp	r3, #1
 8001692:	d112      	bne.n	80016ba <HAL_ADCEx_Calibration_Start+0x62>
 8001694:	687b      	ldr	r3, [r7, #4]
 8001696:	681b      	ldr	r3, [r3, #0]
 8001698:	681b      	ldr	r3, [r3, #0]
 800169a:	2201      	movs	r2, #1
 800169c:	4013      	ands	r3, r2
 800169e:	2b01      	cmp	r3, #1
 80016a0:	d009      	beq.n	80016b6 <HAL_ADCEx_Calibration_Start+0x5e>
 80016a2:	687b      	ldr	r3, [r7, #4]
 80016a4:	681b      	ldr	r3, [r3, #0]
 80016a6:	68da      	ldr	r2, [r3, #12]
 80016a8:	2380      	movs	r3, #128	; 0x80
 80016aa:	021b      	lsls	r3, r3, #8
 80016ac:	401a      	ands	r2, r3
 80016ae:	2380      	movs	r3, #128	; 0x80
 80016b0:	021b      	lsls	r3, r3, #8
 80016b2:	429a      	cmp	r2, r3
 80016b4:	d101      	bne.n	80016ba <HAL_ADCEx_Calibration_Start+0x62>
 80016b6:	2301      	movs	r3, #1
 80016b8:	e000      	b.n	80016bc <HAL_ADCEx_Calibration_Start+0x64>
 80016ba:	2300      	movs	r3, #0
 80016bc:	2b00      	cmp	r3, #0
 80016be:	d15b      	bne.n	8001778 <HAL_ADCEx_Calibration_Start+0x120>
 80016c0:	687b      	ldr	r3, [r7, #4]
 80016c2:	6b9b      	ldr	r3, [r3, #56]	; 0x38
 80016c4:	4a37      	ldr	r2, [pc, #220]	; (80017a4 <HAL_ADCEx_Calibration_Start+0x14c>)
 80016c6:	4013      	ands	r3, r2
 80016c8:	2202      	movs	r2, #2
 80016ca:	431a      	orrs	r2, r3
 80016cc:	687b      	ldr	r3, [r7, #4]
 80016ce:	639a      	str	r2, [r3, #56]	; 0x38
 80016d0:	687b      	ldr	r3, [r7, #4]
 80016d2:	681b      	ldr	r3, [r3, #0]
 80016d4:	68db      	ldr	r3, [r3, #12]
 80016d6:	2203      	movs	r2, #3
 80016d8:	4013      	ands	r3, r2
 80016da:	60fb      	str	r3, [r7, #12]
 80016dc:	687b      	ldr	r3, [r7, #4]
 80016de:	681b      	ldr	r3, [r3, #0]
 80016e0:	68da      	ldr	r2, [r3, #12]
 80016e2:	687b      	ldr	r3, [r7, #4]
 80016e4:	681b      	ldr	r3, [r3, #0]
 80016e6:	2103      	movs	r1, #3
 80016e8:	438a      	bics	r2, r1
 80016ea:	60da      	str	r2, [r3, #12]
 80016ec:	687b      	ldr	r3, [r7, #4]
 80016ee:	681b      	ldr	r3, [r3, #0]
 80016f0:	689a      	ldr	r2, [r3, #8]
 80016f2:	687b      	ldr	r3, [r7, #4]
 80016f4:	681b      	ldr	r3, [r3, #0]
 80016f6:	2180      	movs	r1, #128	; 0x80
 80016f8:	0609      	lsls	r1, r1, #24
 80016fa:	430a      	orrs	r2, r1
 80016fc:	609a      	str	r2, [r3, #8]
 80016fe:	f7ff fae3 	bl	8000cc8 <HAL_GetTick>
 8001702:	0003      	movs	r3, r0
 8001704:	613b      	str	r3, [r7, #16]
 8001706:	e01d      	b.n	8001744 <HAL_ADCEx_Calibration_Start+0xec>
 8001708:	f7ff fade 	bl	8000cc8 <HAL_GetTick>
 800170c:	0002      	movs	r2, r0
 800170e:	693b      	ldr	r3, [r7, #16]
 8001710:	1ad3      	subs	r3, r2, r3
 8001712:	2b02      	cmp	r3, #2
 8001714:	d916      	bls.n	8001744 <HAL_ADCEx_Calibration_Start+0xec>
 8001716:	687b      	ldr	r3, [r7, #4]
 8001718:	681b      	ldr	r3, [r3, #0]
 800171a:	689b      	ldr	r3, [r3, #8]
 800171c:	0fdb      	lsrs	r3, r3, #31
 800171e:	07da      	lsls	r2, r3, #31
 8001720:	2380      	movs	r3, #128	; 0x80
 8001722:	061b      	lsls	r3, r3, #24
 8001724:	429a      	cmp	r2, r3
 8001726:	d10d      	bne.n	8001744 <HAL_ADCEx_Calibration_Start+0xec>
 8001728:	687b      	ldr	r3, [r7, #4]
 800172a:	6b9b      	ldr	r3, [r3, #56]	; 0x38
 800172c:	2212      	movs	r2, #18
 800172e:	4393      	bics	r3, r2
 8001730:	2210      	movs	r2, #16
 8001732:	431a      	orrs	r2, r3
 8001734:	687b      	ldr	r3, [r7, #4]
 8001736:	639a      	str	r2, [r3, #56]	; 0x38
 8001738:	687b      	ldr	r3, [r7, #4]
 800173a:	2234      	movs	r2, #52	; 0x34
 800173c:	2100      	movs	r1, #0
 800173e:	5499      	strb	r1, [r3, r2]
 8001740:	2301      	movs	r3, #1
 8001742:	e02a      	b.n	800179a <HAL_ADCEx_Calibration_Start+0x142>
 8001744:	687b      	ldr	r3, [r7, #4]
 8001746:	681b      	ldr	r3, [r3, #0]
 8001748:	689b      	ldr	r3, [r3, #8]
 800174a:	0fdb      	lsrs	r3, r3, #31
 800174c:	07da      	lsls	r2, r3, #31
 800174e:	2380      	movs	r3, #128	; 0x80
 8001750:	061b      	lsls	r3, r3, #24
 8001752:	429a      	cmp	r2, r3
 8001754:	d0d8      	beq.n	8001708 <HAL_ADCEx_Calibration_Start+0xb0>
 8001756:	687b      	ldr	r3, [r7, #4]
 8001758:	681b      	ldr	r3, [r3, #0]
 800175a:	68d9      	ldr	r1, [r3, #12]
 800175c:	687b      	ldr	r3, [r7, #4]
 800175e:	681b      	ldr	r3, [r3, #0]
 8001760:	68fa      	ldr	r2, [r7, #12]
 8001762:	430a      	orrs	r2, r1
 8001764:	60da      	str	r2, [r3, #12]
 8001766:	687b      	ldr	r3, [r7, #4]
 8001768:	6b9b      	ldr	r3, [r3, #56]	; 0x38
 800176a:	2203      	movs	r2, #3
 800176c:	4393      	bics	r3, r2
 800176e:	2201      	movs	r2, #1
 8001770:	431a      	orrs	r2, r3
 8001772:	687b      	ldr	r3, [r7, #4]
 8001774:	639a      	str	r2, [r3, #56]	; 0x38
 8001776:	e009      	b.n	800178c <HAL_ADCEx_Calibration_Start+0x134>
 8001778:	687b      	ldr	r3, [r7, #4]
 800177a:	6b9b      	ldr	r3, [r3, #56]	; 0x38
 800177c:	2220      	movs	r2, #32
 800177e:	431a      	orrs	r2, r3
 8001780:	687b      	ldr	r3, [r7, #4]
 8001782:	639a      	str	r2, [r3, #56]	; 0x38
 8001784:	2317      	movs	r3, #23
 8001786:	18fb      	adds	r3, r7, r3
 8001788:	2201      	movs	r2, #1
 800178a:	701a      	strb	r2, [r3, #0]
 800178c:	687b      	ldr	r3, [r7, #4]
 800178e:	2234      	movs	r2, #52	; 0x34
 8001790:	2100      	movs	r1, #0
 8001792:	5499      	strb	r1, [r3, r2]
 8001794:	2317      	movs	r3, #23
 8001796:	18fb      	adds	r3, r7, r3
 8001798:	781b      	ldrb	r3, [r3, #0]
 800179a:	0018      	movs	r0, r3
 800179c:	46bd      	mov	sp, r7
 800179e:	b006      	add	sp, #24
 80017a0:	bd80      	pop	{r7, pc}
 80017a2:	46c0      	nop			; (mov r8, r8)
 80017a4:	fffffefd 	.word	0xfffffefd

080017a8 <__NVIC_EnableIRQ>:
 80017a8:	b580      	push	{r7, lr}
 80017aa:	b082      	sub	sp, #8
 80017ac:	af00      	add	r7, sp, #0
 80017ae:	0002      	movs	r2, r0
 80017b0:	1dfb      	adds	r3, r7, #7
 80017b2:	701a      	strb	r2, [r3, #0]
 80017b4:	1dfb      	adds	r3, r7, #7
 80017b6:	781b      	ldrb	r3, [r3, #0]
 80017b8:	2b7f      	cmp	r3, #127	; 0x7f
 80017ba:	d809      	bhi.n	80017d0 <__NVIC_EnableIRQ+0x28>
 80017bc:	1dfb      	adds	r3, r7, #7
 80017be:	781b      	ldrb	r3, [r3, #0]
 80017c0:	001a      	movs	r2, r3
 80017c2:	231f      	movs	r3, #31
 80017c4:	401a      	ands	r2, r3
 80017c6:	4b04      	ldr	r3, [pc, #16]	; (80017d8 <__NVIC_EnableIRQ+0x30>)
 80017c8:	2101      	movs	r1, #1
 80017ca:	4091      	lsls	r1, r2
 80017cc:	000a      	movs	r2, r1
 80017ce:	601a      	str	r2, [r3, #0]
 80017d0:	46c0      	nop			; (mov r8, r8)
 80017d2:	46bd      	mov	sp, r7
 80017d4:	b002      	add	sp, #8
 80017d6:	bd80      	pop	{r7, pc}
 80017d8:	e000e100 	.word	0xe000e100

080017dc <__NVIC_SetPriority>:
 80017dc:	b590      	push	{r4, r7, lr}
 80017de:	b083      	sub	sp, #12
 80017e0:	af00      	add	r7, sp, #0
 80017e2:	0002      	movs	r2, r0
 80017e4:	6039      	str	r1, [r7, #0]
 80017e6:	1dfb      	adds	r3, r7, #7
 80017e8:	701a      	strb	r2, [r3, #0]
 80017ea:	1dfb      	adds	r3, r7, #7
 80017ec:	781b      	ldrb	r3, [r3, #0]
 80017ee:	2b7f      	cmp	r3, #127	; 0x7f
 80017f0:	d828      	bhi.n	8001844 <__NVIC_SetPriority+0x68>
 80017f2:	4a2f      	ldr	r2, [pc, #188]	; (80018b0 <__NVIC_SetPriority+0xd4>)
 80017f4:	1dfb      	adds	r3, r7, #7
 80017f6:	781b      	ldrb	r3, [r3, #0]
 80017f8:	b25b      	sxtb	r3, r3
 80017fa:	089b      	lsrs	r3, r3, #2
 80017fc:	33c0      	adds	r3, #192	; 0xc0
 80017fe:	009b      	lsls	r3, r3, #2
 8001800:	589b      	ldr	r3, [r3, r2]
 8001802:	1dfa      	adds	r2, r7, #7
 8001804:	7812      	ldrb	r2, [r2, #0]
 8001806:	0011      	movs	r1, r2
 8001808:	2203      	movs	r2, #3
 800180a:	400a      	ands	r2, r1
 800180c:	00d2      	lsls	r2, r2, #3
 800180e:	21ff      	movs	r1, #255	; 0xff
 8001810:	4091      	lsls	r1, r2
 8001812:	000a      	movs	r2, r1
 8001814:	43d2      	mvns	r2, r2
 8001816:	401a      	ands	r2, r3
 8001818:	0011      	movs	r1, r2
 800181a:	683b      	ldr	r3, [r7, #0]
 800181c:	019b      	lsls	r3, r3, #6
 800181e:	22ff      	movs	r2, #255	; 0xff
 8001820:	401a      	ands	r2, r3
 8001822:	1dfb      	adds	r3, r7, #7
 8001824:	781b      	ldrb	r3, [r3, #0]
 8001826:	0018      	movs	r0, r3
 8001828:	2303      	movs	r3, #3
 800182a:	4003      	ands	r3, r0
 800182c:	00db      	lsls	r3, r3, #3
 800182e:	409a      	lsls	r2, r3
 8001830:	481f      	ldr	r0, [pc, #124]	; (80018b0 <__NVIC_SetPriority+0xd4>)
 8001832:	1dfb      	adds	r3, r7, #7
 8001834:	781b      	ldrb	r3, [r3, #0]
 8001836:	b25b      	sxtb	r3, r3
 8001838:	089b      	lsrs	r3, r3, #2
 800183a:	430a      	orrs	r2, r1
 800183c:	33c0      	adds	r3, #192	; 0xc0
 800183e:	009b      	lsls	r3, r3, #2
 8001840:	501a      	str	r2, [r3, r0]
 8001842:	e031      	b.n	80018a8 <__NVIC_SetPriority+0xcc>
 8001844:	4a1b      	ldr	r2, [pc, #108]	; (80018b4 <__NVIC_SetPriority+0xd8>)
 8001846:	1dfb      	adds	r3, r7, #7
 8001848:	781b      	ldrb	r3, [r3, #0]
 800184a:	0019      	movs	r1, r3
 800184c:	230f      	movs	r3, #15
 800184e:	400b      	ands	r3, r1
 8001850:	3b08      	subs	r3, #8
 8001852:	089b      	lsrs	r3, r3, #2
 8001854:	3306      	adds	r3, #6
 8001856:	009b      	lsls	r3, r3, #2
 8001858:	18d3      	adds	r3, r2, r3
 800185a:	3304      	adds	r3, #4
 800185c:	681b      	ldr	r3, [r3, #0]
 800185e:	1dfa      	adds	r2, r7, #7
 8001860:	7812      	ldrb	r2, [r2, #0]
 8001862:	0011      	movs	r1, r2
 8001864:	2203      	movs	r2, #3
 8001866:	400a      	ands	r2, r1
 8001868:	00d2      	lsls	r2, r2, #3
 800186a:	21ff      	movs	r1, #255	; 0xff
 800186c:	4091      	lsls	r1, r2
 800186e:	000a      	movs	r2, r1
 8001870:	43d2      	mvns	r2, r2
 8001872:	401a      	ands	r2, r3
 8001874:	0011      	movs	r1, r2
 8001876:	683b      	ldr	r3, [r7, #0]
 8001878:	019b      	lsls	r3, r3, #6
 800187a:	22ff      	movs	r2, #255	; 0xff
 800187c:	401a      	ands	r2, r3
 800187e:	1dfb      	adds	r3, r7, #7
 8001880:	781b      	ldrb	r3, [r3, #0]
 8001882:	0018      	movs	r0, r3
 8001884:	2303      	movs	r3, #3
 8001886:	4003      	ands	r3, r0
 8001888:	00db      	lsls	r3, r3, #3
 800188a:	409a      	lsls	r2, r3
 800188c:	4809      	ldr	r0, [pc, #36]	; (80018b4 <__NVIC_SetPriority+0xd8>)
 800188e:	1dfb      	adds	r3, r7, #7
 8001890:	781b      	ldrb	r3, [r3, #0]
 8001892:	001c      	movs	r4, r3
 8001894:	230f      	movs	r3, #15
 8001896:	4023      	ands	r3, r4
 8001898:	3b08      	subs	r3, #8
 800189a:	089b      	lsrs	r3, r3, #2
 800189c:	430a      	orrs	r2, r1
 800189e:	3306      	adds	r3, #6
 80018a0:	009b      	lsls	r3, r3, #2
 80018a2:	18c3      	adds	r3, r0, r3
 80018a4:	3304      	adds	r3, #4
 80018a6:	601a      	str	r2, [r3, #0]
 80018a8:	46c0      	nop			; (mov r8, r8)
 80018aa:	46bd      	mov	sp, r7
 80018ac:	b003      	add	sp, #12
 80018ae:	bd90      	pop	{r4, r7, pc}
 80018b0:	e000e100 	.word	0xe000e100
 80018b4:	e000ed00 	.word	0xe000ed00

080018b8 <SysTick_Config>:
 80018b8:	b580      	push	{r7, lr}
 80018ba:	b082      	sub	sp, #8
 80018bc:	af00      	add	r7, sp, #0
 80018be:	6078      	str	r0, [r7, #4]
 80018c0:	687b      	ldr	r3, [r7, #4]
 80018c2:	1e5a      	subs	r2, r3, #1
 80018c4:	2380      	movs	r3, #128	; 0x80
 80018c6:	045b      	lsls	r3, r3, #17
 80018c8:	429a      	cmp	r2, r3
 80018ca:	d301      	bcc.n	80018d0 <SysTick_Config+0x18>
 80018cc:	2301      	movs	r3, #1
 80018ce:	e010      	b.n	80018f2 <SysTick_Config+0x3a>
 80018d0:	4b0a      	ldr	r3, [pc, #40]	; (80018fc <SysTick_Config+0x44>)
 80018d2:	687a      	ldr	r2, [r7, #4]
 80018d4:	3a01      	subs	r2, #1
 80018d6:	605a      	str	r2, [r3, #4]
 80018d8:	2301      	movs	r3, #1
 80018da:	425b      	negs	r3, r3
 80018dc:	2103      	movs	r1, #3
 80018de:	0018      	movs	r0, r3
 80018e0:	f7ff ff7c 	bl	80017dc <__NVIC_SetPriority>
 80018e4:	4b05      	ldr	r3, [pc, #20]	; (80018fc <SysTick_Config+0x44>)
 80018e6:	2200      	movs	r2, #0
 80018e8:	609a      	str	r2, [r3, #8]
 80018ea:	4b04      	ldr	r3, [pc, #16]	; (80018fc <SysTick_Config+0x44>)
 80018ec:	2207      	movs	r2, #7
 80018ee:	601a      	str	r2, [r3, #0]
 80018f0:	2300      	movs	r3, #0
 80018f2:	0018      	movs	r0, r3
 80018f4:	46bd      	mov	sp, r7
 80018f6:	b002      	add	sp, #8
 80018f8:	bd80      	pop	{r7, pc}
 80018fa:	46c0      	nop			; (mov r8, r8)
 80018fc:	e000e010 	.word	0xe000e010

08001900 <HAL_NVIC_SetPriority>:
 8001900:	b580      	push	{r7, lr}
 8001902:	b084      	sub	sp, #16
 8001904:	af00      	add	r7, sp, #0
 8001906:	60b9      	str	r1, [r7, #8]
 8001908:	607a      	str	r2, [r7, #4]
 800190a:	210f      	movs	r1, #15
 800190c:	187b      	adds	r3, r7, r1
 800190e:	1c02      	adds	r2, r0, #0
 8001910:	701a      	strb	r2, [r3, #0]
 8001912:	68ba      	ldr	r2, [r7, #8]
 8001914:	187b      	adds	r3, r7, r1
 8001916:	781b      	ldrb	r3, [r3, #0]
 8001918:	b25b      	sxtb	r3, r3
 800191a:	0011      	movs	r1, r2
 800191c:	0018      	movs	r0, r3
 800191e:	f7ff ff5d 	bl	80017dc <__NVIC_SetPriority>
 8001922:	46c0      	nop			; (mov r8, r8)
 8001924:	46bd      	mov	sp, r7
 8001926:	b004      	add	sp, #16
 8001928:	bd80      	pop	{r7, pc}

0800192a <HAL_NVIC_EnableIRQ>:
 800192a:	b580      	push	{r7, lr}
 800192c:	b082      	sub	sp, #8
 800192e:	af00      	add	r7, sp, #0
 8001930:	0002      	movs	r2, r0
 8001932:	1dfb      	adds	r3, r7, #7
 8001934:	701a      	strb	r2, [r3, #0]
 8001936:	1dfb      	adds	r3, r7, #7
 8001938:	781b      	ldrb	r3, [r3, #0]
 800193a:	b25b      	sxtb	r3, r3
 800193c:	0018      	movs	r0, r3
 800193e:	f7ff ff33 	bl	80017a8 <__NVIC_EnableIRQ>
 8001942:	46c0      	nop			; (mov r8, r8)
 8001944:	46bd      	mov	sp, r7
 8001946:	b002      	add	sp, #8
 8001948:	bd80      	pop	{r7, pc}

0800194a <HAL_SYSTICK_Config>:
 800194a:	b580      	push	{r7, lr}
 800194c:	b082      	sub	sp, #8
 800194e:	af00      	add	r7, sp, #0
 8001950:	6078      	str	r0, [r7, #4]
 8001952:	687b      	ldr	r3, [r7, #4]
 8001954:	0018      	movs	r0, r3
 8001956:	f7ff ffaf 	bl	80018b8 <SysTick_Config>
 800195a:	0003      	movs	r3, r0
 800195c:	0018      	movs	r0, r3
 800195e:	46bd      	mov	sp, r7
 8001960:	b002      	add	sp, #8
 8001962:	bd80      	pop	{r7, pc}

08001964 <HAL_DMA_Init>:
 8001964:	b580      	push	{r7, lr}
 8001966:	b084      	sub	sp, #16
 8001968:	af00      	add	r7, sp, #0
 800196a:	6078      	str	r0, [r7, #4]
 800196c:	2300      	movs	r3, #0
 800196e:	60fb      	str	r3, [r7, #12]
 8001970:	687b      	ldr	r3, [r7, #4]
 8001972:	2b00      	cmp	r3, #0
 8001974:	d101      	bne.n	800197a <HAL_DMA_Init+0x16>
 8001976:	2301      	movs	r3, #1
 8001978:	e036      	b.n	80019e8 <HAL_DMA_Init+0x84>
 800197a:	687b      	ldr	r3, [r7, #4]
 800197c:	2221      	movs	r2, #33	; 0x21
 800197e:	2102      	movs	r1, #2
 8001980:	5499      	strb	r1, [r3, r2]
 8001982:	687b      	ldr	r3, [r7, #4]
 8001984:	681b      	ldr	r3, [r3, #0]
 8001986:	681b      	ldr	r3, [r3, #0]
 8001988:	60fb      	str	r3, [r7, #12]
 800198a:	68fb      	ldr	r3, [r7, #12]
 800198c:	4a18      	ldr	r2, [pc, #96]	; (80019f0 <HAL_DMA_Init+0x8c>)
 800198e:	4013      	ands	r3, r2
 8001990:	60fb      	str	r3, [r7, #12]
 8001992:	687b      	ldr	r3, [r7, #4]
 8001994:	685a      	ldr	r2, [r3, #4]
 8001996:	687b      	ldr	r3, [r7, #4]
 8001998:	689b      	ldr	r3, [r3, #8]
 800199a:	431a      	orrs	r2, r3
 800199c:	687b      	ldr	r3, [r7, #4]
 800199e:	68db      	ldr	r3, [r3, #12]
 80019a0:	431a      	orrs	r2, r3
 80019a2:	687b      	ldr	r3, [r7, #4]
 80019a4:	691b      	ldr	r3, [r3, #16]
 80019a6:	431a      	orrs	r2, r3
 80019a8:	687b      	ldr	r3, [r7, #4]
 80019aa:	695b      	ldr	r3, [r3, #20]
 80019ac:	431a      	orrs	r2, r3
 80019ae:	687b      	ldr	r3, [r7, #4]
 80019b0:	699b      	ldr	r3, [r3, #24]
 80019b2:	431a      	orrs	r2, r3
 80019b4:	687b      	ldr	r3, [r7, #4]
 80019b6:	69db      	ldr	r3, [r3, #28]
 80019b8:	4313      	orrs	r3, r2
 80019ba:	68fa      	ldr	r2, [r7, #12]
 80019bc:	4313      	orrs	r3, r2
 80019be:	60fb      	str	r3, [r7, #12]
 80019c0:	687b      	ldr	r3, [r7, #4]
 80019c2:	681b      	ldr	r3, [r3, #0]
 80019c4:	68fa      	ldr	r2, [r7, #12]
 80019c6:	601a      	str	r2, [r3, #0]
 80019c8:	687b      	ldr	r3, [r7, #4]
 80019ca:	0018      	movs	r0, r3
 80019cc:	f000 f932 	bl	8001c34 <DMA_CalcBaseAndBitshift>
 80019d0:	687b      	ldr	r3, [r7, #4]
 80019d2:	2200      	movs	r2, #0
 80019d4:	639a      	str	r2, [r3, #56]	; 0x38
 80019d6:	687b      	ldr	r3, [r7, #4]
 80019d8:	2221      	movs	r2, #33	; 0x21
 80019da:	2101      	movs	r1, #1
 80019dc:	5499      	strb	r1, [r3, r2]
 80019de:	687b      	ldr	r3, [r7, #4]
 80019e0:	2220      	movs	r2, #32
 80019e2:	2100      	movs	r1, #0
 80019e4:	5499      	strb	r1, [r3, r2]
 80019e6:	2300      	movs	r3, #0
 80019e8:	0018      	movs	r0, r3
 80019ea:	46bd      	mov	sp, r7
 80019ec:	b004      	add	sp, #16
 80019ee:	bd80      	pop	{r7, pc}
 80019f0:	ffffc00f 	.word	0xffffc00f

080019f4 <HAL_DMA_Abort>:
 80019f4:	b580      	push	{r7, lr}
 80019f6:	b082      	sub	sp, #8
 80019f8:	af00      	add	r7, sp, #0
 80019fa:	6078      	str	r0, [r7, #4]
 80019fc:	687b      	ldr	r3, [r7, #4]
 80019fe:	2221      	movs	r2, #33	; 0x21
 8001a00:	5c9b      	ldrb	r3, [r3, r2]
 8001a02:	b2db      	uxtb	r3, r3
 8001a04:	2b02      	cmp	r3, #2
 8001a06:	d008      	beq.n	8001a1a <HAL_DMA_Abort+0x26>
 8001a08:	687b      	ldr	r3, [r7, #4]
 8001a0a:	2204      	movs	r2, #4
 8001a0c:	639a      	str	r2, [r3, #56]	; 0x38
 8001a0e:	687b      	ldr	r3, [r7, #4]
 8001a10:	2220      	movs	r2, #32
 8001a12:	2100      	movs	r1, #0
 8001a14:	5499      	strb	r1, [r3, r2]
 8001a16:	2301      	movs	r3, #1
 8001a18:	e020      	b.n	8001a5c <HAL_DMA_Abort+0x68>
 8001a1a:	687b      	ldr	r3, [r7, #4]
 8001a1c:	681b      	ldr	r3, [r3, #0]
 8001a1e:	681a      	ldr	r2, [r3, #0]
 8001a20:	687b      	ldr	r3, [r7, #4]
 8001a22:	681b      	ldr	r3, [r3, #0]
 8001a24:	210e      	movs	r1, #14
 8001a26:	438a      	bics	r2, r1
 8001a28:	601a      	str	r2, [r3, #0]
 8001a2a:	687b      	ldr	r3, [r7, #4]
 8001a2c:	681b      	ldr	r3, [r3, #0]
 8001a2e:	681a      	ldr	r2, [r3, #0]
 8001a30:	687b      	ldr	r3, [r7, #4]
 8001a32:	681b      	ldr	r3, [r3, #0]
 8001a34:	2101      	movs	r1, #1
 8001a36:	438a      	bics	r2, r1
 8001a38:	601a      	str	r2, [r3, #0]
 8001a3a:	687b      	ldr	r3, [r7, #4]
 8001a3c:	6c1a      	ldr	r2, [r3, #64]	; 0x40
 8001a3e:	687b      	ldr	r3, [r7, #4]
 8001a40:	6bdb      	ldr	r3, [r3, #60]	; 0x3c
 8001a42:	2101      	movs	r1, #1
 8001a44:	4091      	lsls	r1, r2
 8001a46:	000a      	movs	r2, r1
 8001a48:	605a      	str	r2, [r3, #4]
 8001a4a:	687b      	ldr	r3, [r7, #4]
 8001a4c:	2221      	movs	r2, #33	; 0x21
 8001a4e:	2101      	movs	r1, #1
 8001a50:	5499      	strb	r1, [r3, r2]
 8001a52:	687b      	ldr	r3, [r7, #4]
 8001a54:	2220      	movs	r2, #32
 8001a56:	2100      	movs	r1, #0
 8001a58:	5499      	strb	r1, [r3, r2]
 8001a5a:	2300      	movs	r3, #0
 8001a5c:	0018      	movs	r0, r3
 8001a5e:	46bd      	mov	sp, r7
 8001a60:	b002      	add	sp, #8
 8001a62:	bd80      	pop	{r7, pc}

08001a64 <HAL_DMA_Abort_IT>:
 8001a64:	b580      	push	{r7, lr}
 8001a66:	b084      	sub	sp, #16
 8001a68:	af00      	add	r7, sp, #0
 8001a6a:	6078      	str	r0, [r7, #4]
 8001a6c:	210f      	movs	r1, #15
 8001a6e:	187b      	adds	r3, r7, r1
 8001a70:	2200      	movs	r2, #0
 8001a72:	701a      	strb	r2, [r3, #0]
 8001a74:	687b      	ldr	r3, [r7, #4]
 8001a76:	2221      	movs	r2, #33	; 0x21
 8001a78:	5c9b      	ldrb	r3, [r3, r2]
 8001a7a:	b2db      	uxtb	r3, r3
 8001a7c:	2b02      	cmp	r3, #2
 8001a7e:	d006      	beq.n	8001a8e <HAL_DMA_Abort_IT+0x2a>
 8001a80:	687b      	ldr	r3, [r7, #4]
 8001a82:	2204      	movs	r2, #4
 8001a84:	639a      	str	r2, [r3, #56]	; 0x38
 8001a86:	187b      	adds	r3, r7, r1
 8001a88:	2201      	movs	r2, #1
 8001a8a:	701a      	strb	r2, [r3, #0]
 8001a8c:	e028      	b.n	8001ae0 <HAL_DMA_Abort_IT+0x7c>
 8001a8e:	687b      	ldr	r3, [r7, #4]
 8001a90:	681b      	ldr	r3, [r3, #0]
 8001a92:	681a      	ldr	r2, [r3, #0]
 8001a94:	687b      	ldr	r3, [r7, #4]
 8001a96:	681b      	ldr	r3, [r3, #0]
 8001a98:	210e      	movs	r1, #14
 8001a9a:	438a      	bics	r2, r1
 8001a9c:	601a      	str	r2, [r3, #0]
 8001a9e:	687b      	ldr	r3, [r7, #4]
 8001aa0:	681b      	ldr	r3, [r3, #0]
 8001aa2:	681a      	ldr	r2, [r3, #0]
 8001aa4:	687b      	ldr	r3, [r7, #4]
 8001aa6:	681b      	ldr	r3, [r3, #0]
 8001aa8:	2101      	movs	r1, #1
 8001aaa:	438a      	bics	r2, r1
 8001aac:	601a      	str	r2, [r3, #0]
 8001aae:	687b      	ldr	r3, [r7, #4]
 8001ab0:	6c1a      	ldr	r2, [r3, #64]	; 0x40
 8001ab2:	687b      	ldr	r3, [r7, #4]
 8001ab4:	6bdb      	ldr	r3, [r3, #60]	; 0x3c
 8001ab6:	2101      	movs	r1, #1
 8001ab8:	4091      	lsls	r1, r2
 8001aba:	000a      	movs	r2, r1
 8001abc:	605a      	str	r2, [r3, #4]
 8001abe:	687b      	ldr	r3, [r7, #4]
 8001ac0:	2221      	movs	r2, #33	; 0x21
 8001ac2:	2101      	movs	r1, #1
 8001ac4:	5499      	strb	r1, [r3, r2]
 8001ac6:	687b      	ldr	r3, [r7, #4]
 8001ac8:	2220      	movs	r2, #32
 8001aca:	2100      	movs	r1, #0
 8001acc:	5499      	strb	r1, [r3, r2]
 8001ace:	687b      	ldr	r3, [r7, #4]
 8001ad0:	6b5b      	ldr	r3, [r3, #52]	; 0x34
 8001ad2:	2b00      	cmp	r3, #0
 8001ad4:	d004      	beq.n	8001ae0 <HAL_DMA_Abort_IT+0x7c>
 8001ad6:	687b      	ldr	r3, [r7, #4]
 8001ad8:	6b5b      	ldr	r3, [r3, #52]	; 0x34
 8001ada:	687a      	ldr	r2, [r7, #4]
 8001adc:	0010      	movs	r0, r2
 8001ade:	4798      	blx	r3
 8001ae0:	230f      	movs	r3, #15
 8001ae2:	18fb      	adds	r3, r7, r3
 8001ae4:	781b      	ldrb	r3, [r3, #0]
 8001ae6:	0018      	movs	r0, r3
 8001ae8:	46bd      	mov	sp, r7
 8001aea:	b004      	add	sp, #16
 8001aec:	bd80      	pop	{r7, pc}

08001aee <HAL_DMA_IRQHandler>:
 8001aee:	b580      	push	{r7, lr}
 8001af0:	b084      	sub	sp, #16
 8001af2:	af00      	add	r7, sp, #0
 8001af4:	6078      	str	r0, [r7, #4]
 8001af6:	687b      	ldr	r3, [r7, #4]
 8001af8:	6bdb      	ldr	r3, [r3, #60]	; 0x3c
 8001afa:	681b      	ldr	r3, [r3, #0]
 8001afc:	60fb      	str	r3, [r7, #12]
 8001afe:	687b      	ldr	r3, [r7, #4]
 8001b00:	681b      	ldr	r3, [r3, #0]
 8001b02:	681b      	ldr	r3, [r3, #0]
 8001b04:	60bb      	str	r3, [r7, #8]
 8001b06:	687b      	ldr	r3, [r7, #4]
 8001b08:	6c1b      	ldr	r3, [r3, #64]	; 0x40
 8001b0a:	2204      	movs	r2, #4
 8001b0c:	409a      	lsls	r2, r3
 8001b0e:	0013      	movs	r3, r2
 8001b10:	68fa      	ldr	r2, [r7, #12]
 8001b12:	4013      	ands	r3, r2
 8001b14:	d024      	beq.n	8001b60 <HAL_DMA_IRQHandler+0x72>
 8001b16:	68bb      	ldr	r3, [r7, #8]
 8001b18:	2204      	movs	r2, #4
 8001b1a:	4013      	ands	r3, r2
 8001b1c:	d020      	beq.n	8001b60 <HAL_DMA_IRQHandler+0x72>
 8001b1e:	687b      	ldr	r3, [r7, #4]
 8001b20:	681b      	ldr	r3, [r3, #0]
 8001b22:	681b      	ldr	r3, [r3, #0]
 8001b24:	2220      	movs	r2, #32
 8001b26:	4013      	ands	r3, r2
 8001b28:	d107      	bne.n	8001b3a <HAL_DMA_IRQHandler+0x4c>
 8001b2a:	687b      	ldr	r3, [r7, #4]
 8001b2c:	681b      	ldr	r3, [r3, #0]
 8001b2e:	681a      	ldr	r2, [r3, #0]
 8001b30:	687b      	ldr	r3, [r7, #4]
 8001b32:	681b      	ldr	r3, [r3, #0]
 8001b34:	2104      	movs	r1, #4
 8001b36:	438a      	bics	r2, r1
 8001b38:	601a      	str	r2, [r3, #0]
 8001b3a:	687b      	ldr	r3, [r7, #4]
 8001b3c:	6c1a      	ldr	r2, [r3, #64]	; 0x40
 8001b3e:	687b      	ldr	r3, [r7, #4]
 8001b40:	6bdb      	ldr	r3, [r3, #60]	; 0x3c
 8001b42:	2104      	movs	r1, #4
 8001b44:	4091      	lsls	r1, r2
 8001b46:	000a      	movs	r2, r1
 8001b48:	605a      	str	r2, [r3, #4]
 8001b4a:	687b      	ldr	r3, [r7, #4]
 8001b4c:	6adb      	ldr	r3, [r3, #44]	; 0x2c
 8001b4e:	2b00      	cmp	r3, #0
 8001b50:	d100      	bne.n	8001b54 <HAL_DMA_IRQHandler+0x66>
 8001b52:	e06a      	b.n	8001c2a <HAL_DMA_IRQHandler+0x13c>
 8001b54:	687b      	ldr	r3, [r7, #4]
 8001b56:	6adb      	ldr	r3, [r3, #44]	; 0x2c
 8001b58:	687a      	ldr	r2, [r7, #4]
 8001b5a:	0010      	movs	r0, r2
 8001b5c:	4798      	blx	r3
 8001b5e:	e064      	b.n	8001c2a <HAL_DMA_IRQHandler+0x13c>
 8001b60:	687b      	ldr	r3, [r7, #4]
 8001b62:	6c1b      	ldr	r3, [r3, #64]	; 0x40
 8001b64:	2202      	movs	r2, #2
 8001b66:	409a      	lsls	r2, r3
 8001b68:	0013      	movs	r3, r2
 8001b6a:	68fa      	ldr	r2, [r7, #12]
 8001b6c:	4013      	ands	r3, r2
 8001b6e:	d02b      	beq.n	8001bc8 <HAL_DMA_IRQHandler+0xda>
 8001b70:	68bb      	ldr	r3, [r7, #8]
 8001b72:	2202      	movs	r2, #2
 8001b74:	4013      	ands	r3, r2
 8001b76:	d027      	beq.n	8001bc8 <HAL_DMA_IRQHandler+0xda>
 8001b78:	687b      	ldr	r3, [r7, #4]
 8001b7a:	681b      	ldr	r3, [r3, #0]
 8001b7c:	681b      	ldr	r3, [r3, #0]
 8001b7e:	2220      	movs	r2, #32
 8001b80:	4013      	ands	r3, r2
 8001b82:	d10b      	bne.n	8001b9c <HAL_DMA_IRQHandler+0xae>
 8001b84:	687b      	ldr	r3, [r7, #4]
 8001b86:	681b      	ldr	r3, [r3, #0]
 8001b88:	681a      	ldr	r2, [r3, #0]
 8001b8a:	687b      	ldr	r3, [r7, #4]
 8001b8c:	681b      	ldr	r3, [r3, #0]
 8001b8e:	210a      	movs	r1, #10
 8001b90:	438a      	bics	r2, r1
 8001b92:	601a      	str	r2, [r3, #0]
 8001b94:	687b      	ldr	r3, [r7, #4]
 8001b96:	2221      	movs	r2, #33	; 0x21
 8001b98:	2101      	movs	r1, #1
 8001b9a:	5499      	strb	r1, [r3, r2]
 8001b9c:	687b      	ldr	r3, [r7, #4]
 8001b9e:	6c1a      	ldr	r2, [r3, #64]	; 0x40
 8001ba0:	687b      	ldr	r3, [r7, #4]
 8001ba2:	6bdb      	ldr	r3, [r3, #60]	; 0x3c
 8001ba4:	2102      	movs	r1, #2
 8001ba6:	4091      	lsls	r1, r2
 8001ba8:	000a      	movs	r2, r1
 8001baa:	605a      	str	r2, [r3, #4]
 8001bac:	687b      	ldr	r3, [r7, #4]
 8001bae:	2220      	movs	r2, #32
 8001bb0:	2100      	movs	r1, #0
 8001bb2:	5499      	strb	r1, [r3, r2]
 8001bb4:	687b      	ldr	r3, [r7, #4]
 8001bb6:	6a9b      	ldr	r3, [r3, #40]	; 0x28
 8001bb8:	2b00      	cmp	r3, #0
 8001bba:	d036      	beq.n	8001c2a <HAL_DMA_IRQHandler+0x13c>
 8001bbc:	687b      	ldr	r3, [r7, #4]
 8001bbe:	6a9b      	ldr	r3, [r3, #40]	; 0x28
 8001bc0:	687a      	ldr	r2, [r7, #4]
 8001bc2:	0010      	movs	r0, r2
 8001bc4:	4798      	blx	r3
 8001bc6:	e030      	b.n	8001c2a <HAL_DMA_IRQHandler+0x13c>
 8001bc8:	687b      	ldr	r3, [r7, #4]
 8001bca:	6c1b      	ldr	r3, [r3, #64]	; 0x40
 8001bcc:	2208      	movs	r2, #8
 8001bce:	409a      	lsls	r2, r3
 8001bd0:	0013      	movs	r3, r2
 8001bd2:	68fa      	ldr	r2, [r7, #12]
 8001bd4:	4013      	ands	r3, r2
 8001bd6:	d028      	beq.n	8001c2a <HAL_DMA_IRQHandler+0x13c>
 8001bd8:	68bb      	ldr	r3, [r7, #8]
 8001bda:	2208      	movs	r2, #8
 8001bdc:	4013      	ands	r3, r2
 8001bde:	d024      	beq.n	8001c2a <HAL_DMA_IRQHandler+0x13c>
 8001be0:	687b      	ldr	r3, [r7, #4]
 8001be2:	681b      	ldr	r3, [r3, #0]
 8001be4:	681a      	ldr	r2, [r3, #0]
 8001be6:	687b      	ldr	r3, [r7, #4]
 8001be8:	681b      	ldr	r3, [r3, #0]
 8001bea:	210e      	movs	r1, #14
 8001bec:	438a      	bics	r2, r1
 8001bee:	601a      	str	r2, [r3, #0]
 8001bf0:	687b      	ldr	r3, [r7, #4]
 8001bf2:	6c1a      	ldr	r2, [r3, #64]	; 0x40
 8001bf4:	687b      	ldr	r3, [r7, #4]
 8001bf6:	6bdb      	ldr	r3, [r3, #60]	; 0x3c
 8001bf8:	2101      	movs	r1, #1
 8001bfa:	4091      	lsls	r1, r2
 8001bfc:	000a      	movs	r2, r1
 8001bfe:	605a      	str	r2, [r3, #4]
 8001c00:	687b      	ldr	r3, [r7, #4]
 8001c02:	2201      	movs	r2, #1
 8001c04:	639a      	str	r2, [r3, #56]	; 0x38
 8001c06:	687b      	ldr	r3, [r7, #4]
 8001c08:	2221      	movs	r2, #33	; 0x21
 8001c0a:	2101      	movs	r1, #1
 8001c0c:	5499      	strb	r1, [r3, r2]
 8001c0e:	687b      	ldr	r3, [r7, #4]
 8001c10:	2220      	movs	r2, #32
 8001c12:	2100      	movs	r1, #0
 8001c14:	5499      	strb	r1, [r3, r2]
 8001c16:	687b      	ldr	r3, [r7, #4]
 8001c18:	6b1b      	ldr	r3, [r3, #48]	; 0x30
 8001c1a:	2b00      	cmp	r3, #0
 8001c1c:	d005      	beq.n	8001c2a <HAL_DMA_IRQHandler+0x13c>
 8001c1e:	687b      	ldr	r3, [r7, #4]
 8001c20:	6b1b      	ldr	r3, [r3, #48]	; 0x30
 8001c22:	687a      	ldr	r2, [r7, #4]
 8001c24:	0010      	movs	r0, r2
 8001c26:	4798      	blx	r3
 8001c28:	e7ff      	b.n	8001c2a <HAL_DMA_IRQHandler+0x13c>
 8001c2a:	46c0      	nop			; (mov r8, r8)
 8001c2c:	46bd      	mov	sp, r7
 8001c2e:	b004      	add	sp, #16
 8001c30:	bd80      	pop	{r7, pc}
	...

08001c34 <DMA_CalcBaseAndBitshift>:
 8001c34:	b580      	push	{r7, lr}
 8001c36:	b082      	sub	sp, #8
 8001c38:	af00      	add	r7, sp, #0
 8001c3a:	6078      	str	r0, [r7, #4]
 8001c3c:	687b      	ldr	r3, [r7, #4]
 8001c3e:	681b      	ldr	r3, [r3, #0]
 8001c40:	4a08      	ldr	r2, [pc, #32]	; (8001c64 <DMA_CalcBaseAndBitshift+0x30>)
 8001c42:	4694      	mov	ip, r2
 8001c44:	4463      	add	r3, ip
 8001c46:	2114      	movs	r1, #20
 8001c48:	0018      	movs	r0, r3
 8001c4a:	f7fe fa67 	bl	800011c <__udivsi3>
 8001c4e:	0003      	movs	r3, r0
 8001c50:	009a      	lsls	r2, r3, #2
 8001c52:	687b      	ldr	r3, [r7, #4]
 8001c54:	641a      	str	r2, [r3, #64]	; 0x40
 8001c56:	687b      	ldr	r3, [r7, #4]
 8001c58:	4a03      	ldr	r2, [pc, #12]	; (8001c68 <DMA_CalcBaseAndBitshift+0x34>)
 8001c5a:	63da      	str	r2, [r3, #60]	; 0x3c
 8001c5c:	46c0      	nop			; (mov r8, r8)
 8001c5e:	46bd      	mov	sp, r7
 8001c60:	b002      	add	sp, #8
 8001c62:	bd80      	pop	{r7, pc}
 8001c64:	bffdfff8 	.word	0xbffdfff8
 8001c68:	40020000 	.word	0x40020000

08001c6c <HAL_GPIO_Init>:
 8001c6c:	b580      	push	{r7, lr}
 8001c6e:	b086      	sub	sp, #24
 8001c70:	af00      	add	r7, sp, #0
 8001c72:	6078      	str	r0, [r7, #4]
 8001c74:	6039      	str	r1, [r7, #0]
 8001c76:	2300      	movs	r3, #0
 8001c78:	617b      	str	r3, [r7, #20]
 8001c7a:	e14f      	b.n	8001f1c <HAL_GPIO_Init+0x2b0>
 8001c7c:	683b      	ldr	r3, [r7, #0]
 8001c7e:	681b      	ldr	r3, [r3, #0]
 8001c80:	2101      	movs	r1, #1
 8001c82:	697a      	ldr	r2, [r7, #20]
 8001c84:	4091      	lsls	r1, r2
 8001c86:	000a      	movs	r2, r1
 8001c88:	4013      	ands	r3, r2
 8001c8a:	60fb      	str	r3, [r7, #12]
 8001c8c:	68fb      	ldr	r3, [r7, #12]
 8001c8e:	2b00      	cmp	r3, #0
 8001c90:	d100      	bne.n	8001c94 <HAL_GPIO_Init+0x28>
 8001c92:	e140      	b.n	8001f16 <HAL_GPIO_Init+0x2aa>
 8001c94:	683b      	ldr	r3, [r7, #0]
 8001c96:	685b      	ldr	r3, [r3, #4]
 8001c98:	2203      	movs	r2, #3
 8001c9a:	4013      	ands	r3, r2
 8001c9c:	2b01      	cmp	r3, #1
 8001c9e:	d005      	beq.n	8001cac <HAL_GPIO_Init+0x40>
 8001ca0:	683b      	ldr	r3, [r7, #0]
 8001ca2:	685b      	ldr	r3, [r3, #4]
 8001ca4:	2203      	movs	r2, #3
 8001ca6:	4013      	ands	r3, r2
 8001ca8:	2b02      	cmp	r3, #2
 8001caa:	d130      	bne.n	8001d0e <HAL_GPIO_Init+0xa2>
 8001cac:	687b      	ldr	r3, [r7, #4]
 8001cae:	689b      	ldr	r3, [r3, #8]
 8001cb0:	613b      	str	r3, [r7, #16]
 8001cb2:	697b      	ldr	r3, [r7, #20]
 8001cb4:	005b      	lsls	r3, r3, #1
 8001cb6:	2203      	movs	r2, #3
 8001cb8:	409a      	lsls	r2, r3
 8001cba:	0013      	movs	r3, r2
 8001cbc:	43da      	mvns	r2, r3
 8001cbe:	693b      	ldr	r3, [r7, #16]
 8001cc0:	4013      	ands	r3, r2
 8001cc2:	613b      	str	r3, [r7, #16]
 8001cc4:	683b      	ldr	r3, [r7, #0]
 8001cc6:	68da      	ldr	r2, [r3, #12]
 8001cc8:	697b      	ldr	r3, [r7, #20]
 8001cca:	005b      	lsls	r3, r3, #1
 8001ccc:	409a      	lsls	r2, r3
 8001cce:	0013      	movs	r3, r2
 8001cd0:	693a      	ldr	r2, [r7, #16]
 8001cd2:	4313      	orrs	r3, r2
 8001cd4:	613b      	str	r3, [r7, #16]
 8001cd6:	687b      	ldr	r3, [r7, #4]
 8001cd8:	693a      	ldr	r2, [r7, #16]
 8001cda:	609a      	str	r2, [r3, #8]
 8001cdc:	687b      	ldr	r3, [r7, #4]
 8001cde:	685b      	ldr	r3, [r3, #4]
 8001ce0:	613b      	str	r3, [r7, #16]
 8001ce2:	2201      	movs	r2, #1
 8001ce4:	697b      	ldr	r3, [r7, #20]
 8001ce6:	409a      	lsls	r2, r3
 8001ce8:	0013      	movs	r3, r2
 8001cea:	43da      	mvns	r2, r3
 8001cec:	693b      	ldr	r3, [r7, #16]
 8001cee:	4013      	ands	r3, r2
 8001cf0:	613b      	str	r3, [r7, #16]
 8001cf2:	683b      	ldr	r3, [r7, #0]
 8001cf4:	685b      	ldr	r3, [r3, #4]
 8001cf6:	091b      	lsrs	r3, r3, #4
 8001cf8:	2201      	movs	r2, #1
 8001cfa:	401a      	ands	r2, r3
 8001cfc:	697b      	ldr	r3, [r7, #20]
 8001cfe:	409a      	lsls	r2, r3
 8001d00:	0013      	movs	r3, r2
 8001d02:	693a      	ldr	r2, [r7, #16]
 8001d04:	4313      	orrs	r3, r2
 8001d06:	613b      	str	r3, [r7, #16]
 8001d08:	687b      	ldr	r3, [r7, #4]
 8001d0a:	693a      	ldr	r2, [r7, #16]
 8001d0c:	605a      	str	r2, [r3, #4]
 8001d0e:	683b      	ldr	r3, [r7, #0]
 8001d10:	685b      	ldr	r3, [r3, #4]
 8001d12:	2203      	movs	r2, #3
 8001d14:	4013      	ands	r3, r2
 8001d16:	2b03      	cmp	r3, #3
 8001d18:	d017      	beq.n	8001d4a <HAL_GPIO_Init+0xde>
 8001d1a:	687b      	ldr	r3, [r7, #4]
 8001d1c:	68db      	ldr	r3, [r3, #12]
 8001d1e:	613b      	str	r3, [r7, #16]
 8001d20:	697b      	ldr	r3, [r7, #20]
 8001d22:	005b      	lsls	r3, r3, #1
 8001d24:	2203      	movs	r2, #3
 8001d26:	409a      	lsls	r2, r3
 8001d28:	0013      	movs	r3, r2
 8001d2a:	43da      	mvns	r2, r3
 8001d2c:	693b      	ldr	r3, [r7, #16]
 8001d2e:	4013      	ands	r3, r2
 8001d30:	613b      	str	r3, [r7, #16]
 8001d32:	683b      	ldr	r3, [r7, #0]
 8001d34:	689a      	ldr	r2, [r3, #8]
 8001d36:	697b      	ldr	r3, [r7, #20]
 8001d38:	005b      	lsls	r3, r3, #1
 8001d3a:	409a      	lsls	r2, r3
 8001d3c:	0013      	movs	r3, r2
 8001d3e:	693a      	ldr	r2, [r7, #16]
 8001d40:	4313      	orrs	r3, r2
 8001d42:	613b      	str	r3, [r7, #16]
 8001d44:	687b      	ldr	r3, [r7, #4]
 8001d46:	693a      	ldr	r2, [r7, #16]
 8001d48:	60da      	str	r2, [r3, #12]
 8001d4a:	683b      	ldr	r3, [r7, #0]
 8001d4c:	685b      	ldr	r3, [r3, #4]
 8001d4e:	2203      	movs	r2, #3
 8001d50:	4013      	ands	r3, r2
 8001d52:	2b02      	cmp	r3, #2
 8001d54:	d123      	bne.n	8001d9e <HAL_GPIO_Init+0x132>
 8001d56:	697b      	ldr	r3, [r7, #20]
 8001d58:	08da      	lsrs	r2, r3, #3
 8001d5a:	687b      	ldr	r3, [r7, #4]
 8001d5c:	3208      	adds	r2, #8
 8001d5e:	0092      	lsls	r2, r2, #2
 8001d60:	58d3      	ldr	r3, [r2, r3]
 8001d62:	613b      	str	r3, [r7, #16]
 8001d64:	697b      	ldr	r3, [r7, #20]
 8001d66:	2207      	movs	r2, #7
 8001d68:	4013      	ands	r3, r2
 8001d6a:	009b      	lsls	r3, r3, #2
 8001d6c:	220f      	movs	r2, #15
 8001d6e:	409a      	lsls	r2, r3
 8001d70:	0013      	movs	r3, r2
 8001d72:	43da      	mvns	r2, r3
 8001d74:	693b      	ldr	r3, [r7, #16]
 8001d76:	4013      	ands	r3, r2
 8001d78:	613b      	str	r3, [r7, #16]
 8001d7a:	683b      	ldr	r3, [r7, #0]
 8001d7c:	691a      	ldr	r2, [r3, #16]
 8001d7e:	697b      	ldr	r3, [r7, #20]
 8001d80:	2107      	movs	r1, #7
 8001d82:	400b      	ands	r3, r1
 8001d84:	009b      	lsls	r3, r3, #2
 8001d86:	409a      	lsls	r2, r3
 8001d88:	0013      	movs	r3, r2
 8001d8a:	693a      	ldr	r2, [r7, #16]
 8001d8c:	4313      	orrs	r3, r2
 8001d8e:	613b      	str	r3, [r7, #16]
 8001d90:	697b      	ldr	r3, [r7, #20]
 8001d92:	08da      	lsrs	r2, r3, #3
 8001d94:	687b      	ldr	r3, [r7, #4]
 8001d96:	3208      	adds	r2, #8
 8001d98:	0092      	lsls	r2, r2, #2
 8001d9a:	6939      	ldr	r1, [r7, #16]
 8001d9c:	50d1      	str	r1, [r2, r3]
 8001d9e:	687b      	ldr	r3, [r7, #4]
 8001da0:	681b      	ldr	r3, [r3, #0]
 8001da2:	613b      	str	r3, [r7, #16]
 8001da4:	697b      	ldr	r3, [r7, #20]
 8001da6:	005b      	lsls	r3, r3, #1
 8001da8:	2203      	movs	r2, #3
 8001daa:	409a      	lsls	r2, r3
 8001dac:	0013      	movs	r3, r2
 8001dae:	43da      	mvns	r2, r3
 8001db0:	693b      	ldr	r3, [r7, #16]
 8001db2:	4013      	ands	r3, r2
 8001db4:	613b      	str	r3, [r7, #16]
 8001db6:	683b      	ldr	r3, [r7, #0]
 8001db8:	685b      	ldr	r3, [r3, #4]
 8001dba:	2203      	movs	r2, #3
 8001dbc:	401a      	ands	r2, r3
 8001dbe:	697b      	ldr	r3, [r7, #20]
 8001dc0:	005b      	lsls	r3, r3, #1
 8001dc2:	409a      	lsls	r2, r3
 8001dc4:	0013      	movs	r3, r2
 8001dc6:	693a      	ldr	r2, [r7, #16]
 8001dc8:	4313      	orrs	r3, r2
 8001dca:	613b      	str	r3, [r7, #16]
 8001dcc:	687b      	ldr	r3, [r7, #4]
 8001dce:	693a      	ldr	r2, [r7, #16]
 8001dd0:	601a      	str	r2, [r3, #0]
 8001dd2:	683b      	ldr	r3, [r7, #0]
 8001dd4:	685a      	ldr	r2, [r3, #4]
 8001dd6:	23c0      	movs	r3, #192	; 0xc0
 8001dd8:	029b      	lsls	r3, r3, #10
 8001dda:	4013      	ands	r3, r2
 8001ddc:	d100      	bne.n	8001de0 <HAL_GPIO_Init+0x174>
 8001dde:	e09a      	b.n	8001f16 <HAL_GPIO_Init+0x2aa>
 8001de0:	4b54      	ldr	r3, [pc, #336]	; (8001f34 <HAL_GPIO_Init+0x2c8>)
 8001de2:	699a      	ldr	r2, [r3, #24]
 8001de4:	4b53      	ldr	r3, [pc, #332]	; (8001f34 <HAL_GPIO_Init+0x2c8>)
 8001de6:	2101      	movs	r1, #1
 8001de8:	430a      	orrs	r2, r1
 8001dea:	619a      	str	r2, [r3, #24]
 8001dec:	4b51      	ldr	r3, [pc, #324]	; (8001f34 <HAL_GPIO_Init+0x2c8>)
 8001dee:	699b      	ldr	r3, [r3, #24]
 8001df0:	2201      	movs	r2, #1
 8001df2:	4013      	ands	r3, r2
 8001df4:	60bb      	str	r3, [r7, #8]
 8001df6:	68bb      	ldr	r3, [r7, #8]
 8001df8:	4a4f      	ldr	r2, [pc, #316]	; (8001f38 <HAL_GPIO_Init+0x2cc>)
 8001dfa:	697b      	ldr	r3, [r7, #20]
 8001dfc:	089b      	lsrs	r3, r3, #2
 8001dfe:	3302      	adds	r3, #2
 8001e00:	009b      	lsls	r3, r3, #2
 8001e02:	589b      	ldr	r3, [r3, r2]
 8001e04:	613b      	str	r3, [r7, #16]
 8001e06:	697b      	ldr	r3, [r7, #20]
 8001e08:	2203      	movs	r2, #3
 8001e0a:	4013      	ands	r3, r2
 8001e0c:	009b      	lsls	r3, r3, #2
 8001e0e:	220f      	movs	r2, #15
 8001e10:	409a      	lsls	r2, r3
 8001e12:	0013      	movs	r3, r2
 8001e14:	43da      	mvns	r2, r3
 8001e16:	693b      	ldr	r3, [r7, #16]
 8001e18:	4013      	ands	r3, r2
 8001e1a:	613b      	str	r3, [r7, #16]
 8001e1c:	687a      	ldr	r2, [r7, #4]
 8001e1e:	2390      	movs	r3, #144	; 0x90
 8001e20:	05db      	lsls	r3, r3, #23
 8001e22:	429a      	cmp	r2, r3
 8001e24:	d013      	beq.n	8001e4e <HAL_GPIO_Init+0x1e2>
 8001e26:	687b      	ldr	r3, [r7, #4]
 8001e28:	4a44      	ldr	r2, [pc, #272]	; (8001f3c <HAL_GPIO_Init+0x2d0>)
 8001e2a:	4293      	cmp	r3, r2
 8001e2c:	d00d      	beq.n	8001e4a <HAL_GPIO_Init+0x1de>
 8001e2e:	687b      	ldr	r3, [r7, #4]
 8001e30:	4a43      	ldr	r2, [pc, #268]	; (8001f40 <HAL_GPIO_Init+0x2d4>)
 8001e32:	4293      	cmp	r3, r2
 8001e34:	d007      	beq.n	8001e46 <HAL_GPIO_Init+0x1da>
 8001e36:	687b      	ldr	r3, [r7, #4]
 8001e38:	4a42      	ldr	r2, [pc, #264]	; (8001f44 <HAL_GPIO_Init+0x2d8>)
 8001e3a:	4293      	cmp	r3, r2
 8001e3c:	d101      	bne.n	8001e42 <HAL_GPIO_Init+0x1d6>
 8001e3e:	2303      	movs	r3, #3
 8001e40:	e006      	b.n	8001e50 <HAL_GPIO_Init+0x1e4>
 8001e42:	2305      	movs	r3, #5
 8001e44:	e004      	b.n	8001e50 <HAL_GPIO_Init+0x1e4>
 8001e46:	2302      	movs	r3, #2
 8001e48:	e002      	b.n	8001e50 <HAL_GPIO_Init+0x1e4>
 8001e4a:	2301      	movs	r3, #1
 8001e4c:	e000      	b.n	8001e50 <HAL_GPIO_Init+0x1e4>
 8001e4e:	2300      	movs	r3, #0
 8001e50:	697a      	ldr	r2, [r7, #20]
 8001e52:	2103      	movs	r1, #3
 8001e54:	400a      	ands	r2, r1
 8001e56:	0092      	lsls	r2, r2, #2
 8001e58:	4093      	lsls	r3, r2
 8001e5a:	693a      	ldr	r2, [r7, #16]
 8001e5c:	4313      	orrs	r3, r2
 8001e5e:	613b      	str	r3, [r7, #16]
 8001e60:	4935      	ldr	r1, [pc, #212]	; (8001f38 <HAL_GPIO_Init+0x2cc>)
 8001e62:	697b      	ldr	r3, [r7, #20]
 8001e64:	089b      	lsrs	r3, r3, #2
 8001e66:	3302      	adds	r3, #2
 8001e68:	009b      	lsls	r3, r3, #2
 8001e6a:	693a      	ldr	r2, [r7, #16]
 8001e6c:	505a      	str	r2, [r3, r1]
 8001e6e:	4b36      	ldr	r3, [pc, #216]	; (8001f48 <HAL_GPIO_Init+0x2dc>)
 8001e70:	681b      	ldr	r3, [r3, #0]
 8001e72:	613b      	str	r3, [r7, #16]
 8001e74:	68fb      	ldr	r3, [r7, #12]
 8001e76:	43da      	mvns	r2, r3
 8001e78:	693b      	ldr	r3, [r7, #16]
 8001e7a:	4013      	ands	r3, r2
 8001e7c:	613b      	str	r3, [r7, #16]
 8001e7e:	683b      	ldr	r3, [r7, #0]
 8001e80:	685a      	ldr	r2, [r3, #4]
 8001e82:	2380      	movs	r3, #128	; 0x80
 8001e84:	025b      	lsls	r3, r3, #9
 8001e86:	4013      	ands	r3, r2
 8001e88:	d003      	beq.n	8001e92 <HAL_GPIO_Init+0x226>
 8001e8a:	693a      	ldr	r2, [r7, #16]
 8001e8c:	68fb      	ldr	r3, [r7, #12]
 8001e8e:	4313      	orrs	r3, r2
 8001e90:	613b      	str	r3, [r7, #16]
 8001e92:	4b2d      	ldr	r3, [pc, #180]	; (8001f48 <HAL_GPIO_Init+0x2dc>)
 8001e94:	693a      	ldr	r2, [r7, #16]
 8001e96:	601a      	str	r2, [r3, #0]
 8001e98:	4b2b      	ldr	r3, [pc, #172]	; (8001f48 <HAL_GPIO_Init+0x2dc>)
 8001e9a:	685b      	ldr	r3, [r3, #4]
 8001e9c:	613b      	str	r3, [r7, #16]
 8001e9e:	68fb      	ldr	r3, [r7, #12]
 8001ea0:	43da      	mvns	r2, r3
 8001ea2:	693b      	ldr	r3, [r7, #16]
 8001ea4:	4013      	ands	r3, r2
 8001ea6:	613b      	str	r3, [r7, #16]
 8001ea8:	683b      	ldr	r3, [r7, #0]
 8001eaa:	685a      	ldr	r2, [r3, #4]
 8001eac:	2380      	movs	r3, #128	; 0x80
 8001eae:	029b      	lsls	r3, r3, #10
 8001eb0:	4013      	ands	r3, r2
 8001eb2:	d003      	beq.n	8001ebc <HAL_GPIO_Init+0x250>
 8001eb4:	693a      	ldr	r2, [r7, #16]
 8001eb6:	68fb      	ldr	r3, [r7, #12]
 8001eb8:	4313      	orrs	r3, r2
 8001eba:	613b      	str	r3, [r7, #16]
 8001ebc:	4b22      	ldr	r3, [pc, #136]	; (8001f48 <HAL_GPIO_Init+0x2dc>)
 8001ebe:	693a      	ldr	r2, [r7, #16]
 8001ec0:	605a      	str	r2, [r3, #4]
 8001ec2:	4b21      	ldr	r3, [pc, #132]	; (8001f48 <HAL_GPIO_Init+0x2dc>)
 8001ec4:	689b      	ldr	r3, [r3, #8]
 8001ec6:	613b      	str	r3, [r7, #16]
 8001ec8:	68fb      	ldr	r3, [r7, #12]
 8001eca:	43da      	mvns	r2, r3
 8001ecc:	693b      	ldr	r3, [r7, #16]
 8001ece:	4013      	ands	r3, r2
 8001ed0:	613b      	str	r3, [r7, #16]
 8001ed2:	683b      	ldr	r3, [r7, #0]
 8001ed4:	685a      	ldr	r2, [r3, #4]
 8001ed6:	2380      	movs	r3, #128	; 0x80
 8001ed8:	035b      	lsls	r3, r3, #13
 8001eda:	4013      	ands	r3, r2
 8001edc:	d003      	beq.n	8001ee6 <HAL_GPIO_Init+0x27a>
 8001ede:	693a      	ldr	r2, [r7, #16]
 8001ee0:	68fb      	ldr	r3, [r7, #12]
 8001ee2:	4313      	orrs	r3, r2
 8001ee4:	613b      	str	r3, [r7, #16]
 8001ee6:	4b18      	ldr	r3, [pc, #96]	; (8001f48 <HAL_GPIO_Init+0x2dc>)
 8001ee8:	693a      	ldr	r2, [r7, #16]
 8001eea:	609a      	str	r2, [r3, #8]
 8001eec:	4b16      	ldr	r3, [pc, #88]	; (8001f48 <HAL_GPIO_Init+0x2dc>)
 8001eee:	68db      	ldr	r3, [r3, #12]
 8001ef0:	613b      	str	r3, [r7, #16]
 8001ef2:	68fb      	ldr	r3, [r7, #12]
 8001ef4:	43da      	mvns	r2, r3
 8001ef6:	693b      	ldr	r3, [r7, #16]
 8001ef8:	4013      	ands	r3, r2
 8001efa:	613b      	str	r3, [r7, #16]
 8001efc:	683b      	ldr	r3, [r7, #0]
 8001efe:	685a      	ldr	r2, [r3, #4]
 8001f00:	2380      	movs	r3, #128	; 0x80
 8001f02:	039b      	lsls	r3, r3, #14
 8001f04:	4013      	ands	r3, r2
 8001f06:	d003      	beq.n	8001f10 <HAL_GPIO_Init+0x2a4>
 8001f08:	693a      	ldr	r2, [r7, #16]
 8001f0a:	68fb      	ldr	r3, [r7, #12]
 8001f0c:	4313      	orrs	r3, r2
 8001f0e:	613b      	str	r3, [r7, #16]
 8001f10:	4b0d      	ldr	r3, [pc, #52]	; (8001f48 <HAL_GPIO_Init+0x2dc>)
 8001f12:	693a      	ldr	r2, [r7, #16]
 8001f14:	60da      	str	r2, [r3, #12]
 8001f16:	697b      	ldr	r3, [r7, #20]
 8001f18:	3301      	adds	r3, #1
 8001f1a:	617b      	str	r3, [r7, #20]
 8001f1c:	683b      	ldr	r3, [r7, #0]
 8001f1e:	681a      	ldr	r2, [r3, #0]
 8001f20:	697b      	ldr	r3, [r7, #20]
 8001f22:	40da      	lsrs	r2, r3
 8001f24:	1e13      	subs	r3, r2, #0
 8001f26:	d000      	beq.n	8001f2a <HAL_GPIO_Init+0x2be>
 8001f28:	e6a8      	b.n	8001c7c <HAL_GPIO_Init+0x10>
 8001f2a:	46c0      	nop			; (mov r8, r8)
 8001f2c:	46c0      	nop			; (mov r8, r8)
 8001f2e:	46bd      	mov	sp, r7
 8001f30:	b006      	add	sp, #24
 8001f32:	bd80      	pop	{r7, pc}
 8001f34:	40021000 	.word	0x40021000
 8001f38:	40010000 	.word	0x40010000
 8001f3c:	48000400 	.word	0x48000400
 8001f40:	48000800 	.word	0x48000800
 8001f44:	48000c00 	.word	0x48000c00
 8001f48:	40010400 	.word	0x40010400

08001f4c <HAL_GPIO_WritePin>:
 8001f4c:	b580      	push	{r7, lr}
 8001f4e:	b082      	sub	sp, #8
 8001f50:	af00      	add	r7, sp, #0
 8001f52:	6078      	str	r0, [r7, #4]
 8001f54:	0008      	movs	r0, r1
 8001f56:	0011      	movs	r1, r2
 8001f58:	1cbb      	adds	r3, r7, #2
 8001f5a:	1c02      	adds	r2, r0, #0
 8001f5c:	801a      	strh	r2, [r3, #0]
 8001f5e:	1c7b      	adds	r3, r7, #1
 8001f60:	1c0a      	adds	r2, r1, #0
 8001f62:	701a      	strb	r2, [r3, #0]
 8001f64:	1c7b      	adds	r3, r7, #1
 8001f66:	781b      	ldrb	r3, [r3, #0]
 8001f68:	2b00      	cmp	r3, #0
 8001f6a:	d004      	beq.n	8001f76 <HAL_GPIO_WritePin+0x2a>
 8001f6c:	1cbb      	adds	r3, r7, #2
 8001f6e:	881a      	ldrh	r2, [r3, #0]
 8001f70:	687b      	ldr	r3, [r7, #4]
 8001f72:	619a      	str	r2, [r3, #24]
 8001f74:	e003      	b.n	8001f7e <HAL_GPIO_WritePin+0x32>
 8001f76:	1cbb      	adds	r3, r7, #2
 8001f78:	881a      	ldrh	r2, [r3, #0]
 8001f7a:	687b      	ldr	r3, [r7, #4]
 8001f7c:	629a      	str	r2, [r3, #40]	; 0x28
 8001f7e:	46c0      	nop			; (mov r8, r8)
 8001f80:	46bd      	mov	sp, r7
 8001f82:	b002      	add	sp, #8
 8001f84:	bd80      	pop	{r7, pc}

08001f86 <HAL_GPIO_TogglePin>:
 8001f86:	b580      	push	{r7, lr}
 8001f88:	b084      	sub	sp, #16
 8001f8a:	af00      	add	r7, sp, #0
 8001f8c:	6078      	str	r0, [r7, #4]
 8001f8e:	000a      	movs	r2, r1
 8001f90:	1cbb      	adds	r3, r7, #2
 8001f92:	801a      	strh	r2, [r3, #0]
 8001f94:	687b      	ldr	r3, [r7, #4]
 8001f96:	695b      	ldr	r3, [r3, #20]
 8001f98:	60fb      	str	r3, [r7, #12]
 8001f9a:	1cbb      	adds	r3, r7, #2
 8001f9c:	881b      	ldrh	r3, [r3, #0]
 8001f9e:	68fa      	ldr	r2, [r7, #12]
 8001fa0:	4013      	ands	r3, r2
 8001fa2:	041a      	lsls	r2, r3, #16
 8001fa4:	68fb      	ldr	r3, [r7, #12]
 8001fa6:	43db      	mvns	r3, r3
 8001fa8:	1cb9      	adds	r1, r7, #2
 8001faa:	8809      	ldrh	r1, [r1, #0]
 8001fac:	400b      	ands	r3, r1
 8001fae:	431a      	orrs	r2, r3
 8001fb0:	687b      	ldr	r3, [r7, #4]
 8001fb2:	619a      	str	r2, [r3, #24]
 8001fb4:	46c0      	nop			; (mov r8, r8)
 8001fb6:	46bd      	mov	sp, r7
 8001fb8:	b004      	add	sp, #16
 8001fba:	bd80      	pop	{r7, pc}

08001fbc <HAL_GPIO_EXTI_IRQHandler>:
 8001fbc:	b580      	push	{r7, lr}
 8001fbe:	b082      	sub	sp, #8
 8001fc0:	af00      	add	r7, sp, #0
 8001fc2:	0002      	movs	r2, r0
 8001fc4:	1dbb      	adds	r3, r7, #6
 8001fc6:	801a      	strh	r2, [r3, #0]
 8001fc8:	4b09      	ldr	r3, [pc, #36]	; (8001ff0 <HAL_GPIO_EXTI_IRQHandler+0x34>)
 8001fca:	695b      	ldr	r3, [r3, #20]
 8001fcc:	1dba      	adds	r2, r7, #6
 8001fce:	8812      	ldrh	r2, [r2, #0]
 8001fd0:	4013      	ands	r3, r2
 8001fd2:	d008      	beq.n	8001fe6 <HAL_GPIO_EXTI_IRQHandler+0x2a>
 8001fd4:	4b06      	ldr	r3, [pc, #24]	; (8001ff0 <HAL_GPIO_EXTI_IRQHandler+0x34>)
 8001fd6:	1dba      	adds	r2, r7, #6
 8001fd8:	8812      	ldrh	r2, [r2, #0]
 8001fda:	615a      	str	r2, [r3, #20]
 8001fdc:	1dbb      	adds	r3, r7, #6
 8001fde:	881b      	ldrh	r3, [r3, #0]
 8001fe0:	0018      	movs	r0, r3
 8001fe2:	f000 f807 	bl	8001ff4 <HAL_GPIO_EXTI_Callback>
 8001fe6:	46c0      	nop			; (mov r8, r8)
 8001fe8:	46bd      	mov	sp, r7
 8001fea:	b002      	add	sp, #8
 8001fec:	bd80      	pop	{r7, pc}
 8001fee:	46c0      	nop			; (mov r8, r8)
 8001ff0:	40010400 	.word	0x40010400

08001ff4 <HAL_GPIO_EXTI_Callback>:
 8001ff4:	b580      	push	{r7, lr}
 8001ff6:	b082      	sub	sp, #8
 8001ff8:	af00      	add	r7, sp, #0
 8001ffa:	0002      	movs	r2, r0
 8001ffc:	1dbb      	adds	r3, r7, #6
 8001ffe:	801a      	strh	r2, [r3, #0]
 8002000:	46c0      	nop			; (mov r8, r8)
 8002002:	46bd      	mov	sp, r7
 8002004:	b002      	add	sp, #8
 8002006:	bd80      	pop	{r7, pc}

08002008 <HAL_RCC_OscConfig>:
 8002008:	b580      	push	{r7, lr}
 800200a:	b088      	sub	sp, #32
 800200c:	af00      	add	r7, sp, #0
 800200e:	6078      	str	r0, [r7, #4]
 8002010:	687b      	ldr	r3, [r7, #4]
 8002012:	2b00      	cmp	r3, #0
 8002014:	d101      	bne.n	800201a <HAL_RCC_OscConfig+0x12>
 8002016:	2301      	movs	r3, #1
 8002018:	e301      	b.n	800261e <HAL_RCC_OscConfig+0x616>
 800201a:	687b      	ldr	r3, [r7, #4]
 800201c:	681b      	ldr	r3, [r3, #0]
 800201e:	2201      	movs	r2, #1
 8002020:	4013      	ands	r3, r2
 8002022:	d100      	bne.n	8002026 <HAL_RCC_OscConfig+0x1e>
 8002024:	e08d      	b.n	8002142 <HAL_RCC_OscConfig+0x13a>
 8002026:	4bc3      	ldr	r3, [pc, #780]	; (8002334 <HAL_RCC_OscConfig+0x32c>)
 8002028:	685b      	ldr	r3, [r3, #4]
 800202a:	220c      	movs	r2, #12
 800202c:	4013      	ands	r3, r2
 800202e:	2b04      	cmp	r3, #4
 8002030:	d00e      	beq.n	8002050 <HAL_RCC_OscConfig+0x48>
 8002032:	4bc0      	ldr	r3, [pc, #768]	; (8002334 <HAL_RCC_OscConfig+0x32c>)
 8002034:	685b      	ldr	r3, [r3, #4]
 8002036:	220c      	movs	r2, #12
 8002038:	4013      	ands	r3, r2
 800203a:	2b08      	cmp	r3, #8
 800203c:	d116      	bne.n	800206c <HAL_RCC_OscConfig+0x64>
 800203e:	4bbd      	ldr	r3, [pc, #756]	; (8002334 <HAL_RCC_OscConfig+0x32c>)
 8002040:	685a      	ldr	r2, [r3, #4]
 8002042:	2380      	movs	r3, #128	; 0x80
 8002044:	025b      	lsls	r3, r3, #9
 8002046:	401a      	ands	r2, r3
 8002048:	2380      	movs	r3, #128	; 0x80
 800204a:	025b      	lsls	r3, r3, #9
 800204c:	429a      	cmp	r2, r3
 800204e:	d10d      	bne.n	800206c <HAL_RCC_OscConfig+0x64>
 8002050:	4bb8      	ldr	r3, [pc, #736]	; (8002334 <HAL_RCC_OscConfig+0x32c>)
 8002052:	681a      	ldr	r2, [r3, #0]
 8002054:	2380      	movs	r3, #128	; 0x80
 8002056:	029b      	lsls	r3, r3, #10
 8002058:	4013      	ands	r3, r2
 800205a:	d100      	bne.n	800205e <HAL_RCC_OscConfig+0x56>
 800205c:	e070      	b.n	8002140 <HAL_RCC_OscConfig+0x138>
 800205e:	687b      	ldr	r3, [r7, #4]
 8002060:	685b      	ldr	r3, [r3, #4]
 8002062:	2b00      	cmp	r3, #0
 8002064:	d000      	beq.n	8002068 <HAL_RCC_OscConfig+0x60>
 8002066:	e06b      	b.n	8002140 <HAL_RCC_OscConfig+0x138>
 8002068:	2301      	movs	r3, #1
 800206a:	e2d8      	b.n	800261e <HAL_RCC_OscConfig+0x616>
 800206c:	687b      	ldr	r3, [r7, #4]
 800206e:	685b      	ldr	r3, [r3, #4]
 8002070:	2b01      	cmp	r3, #1
 8002072:	d107      	bne.n	8002084 <HAL_RCC_OscConfig+0x7c>
 8002074:	4baf      	ldr	r3, [pc, #700]	; (8002334 <HAL_RCC_OscConfig+0x32c>)
 8002076:	681a      	ldr	r2, [r3, #0]
 8002078:	4bae      	ldr	r3, [pc, #696]	; (8002334 <HAL_RCC_OscConfig+0x32c>)
 800207a:	2180      	movs	r1, #128	; 0x80
 800207c:	0249      	lsls	r1, r1, #9
 800207e:	430a      	orrs	r2, r1
 8002080:	601a      	str	r2, [r3, #0]
 8002082:	e02f      	b.n	80020e4 <HAL_RCC_OscConfig+0xdc>
 8002084:	687b      	ldr	r3, [r7, #4]
 8002086:	685b      	ldr	r3, [r3, #4]
 8002088:	2b00      	cmp	r3, #0
 800208a:	d10c      	bne.n	80020a6 <HAL_RCC_OscConfig+0x9e>
 800208c:	4ba9      	ldr	r3, [pc, #676]	; (8002334 <HAL_RCC_OscConfig+0x32c>)
 800208e:	681a      	ldr	r2, [r3, #0]
 8002090:	4ba8      	ldr	r3, [pc, #672]	; (8002334 <HAL_RCC_OscConfig+0x32c>)
 8002092:	49a9      	ldr	r1, [pc, #676]	; (8002338 <HAL_RCC_OscConfig+0x330>)
 8002094:	400a      	ands	r2, r1
 8002096:	601a      	str	r2, [r3, #0]
 8002098:	4ba6      	ldr	r3, [pc, #664]	; (8002334 <HAL_RCC_OscConfig+0x32c>)
 800209a:	681a      	ldr	r2, [r3, #0]
 800209c:	4ba5      	ldr	r3, [pc, #660]	; (8002334 <HAL_RCC_OscConfig+0x32c>)
 800209e:	49a7      	ldr	r1, [pc, #668]	; (800233c <HAL_RCC_OscConfig+0x334>)
 80020a0:	400a      	ands	r2, r1
 80020a2:	601a      	str	r2, [r3, #0]
 80020a4:	e01e      	b.n	80020e4 <HAL_RCC_OscConfig+0xdc>
 80020a6:	687b      	ldr	r3, [r7, #4]
 80020a8:	685b      	ldr	r3, [r3, #4]
 80020aa:	2b05      	cmp	r3, #5
 80020ac:	d10e      	bne.n	80020cc <HAL_RCC_OscConfig+0xc4>
 80020ae:	4ba1      	ldr	r3, [pc, #644]	; (8002334 <HAL_RCC_OscConfig+0x32c>)
 80020b0:	681a      	ldr	r2, [r3, #0]
 80020b2:	4ba0      	ldr	r3, [pc, #640]	; (8002334 <HAL_RCC_OscConfig+0x32c>)
 80020b4:	2180      	movs	r1, #128	; 0x80
 80020b6:	02c9      	lsls	r1, r1, #11
 80020b8:	430a      	orrs	r2, r1
 80020ba:	601a      	str	r2, [r3, #0]
 80020bc:	4b9d      	ldr	r3, [pc, #628]	; (8002334 <HAL_RCC_OscConfig+0x32c>)
 80020be:	681a      	ldr	r2, [r3, #0]
 80020c0:	4b9c      	ldr	r3, [pc, #624]	; (8002334 <HAL_RCC_OscConfig+0x32c>)
 80020c2:	2180      	movs	r1, #128	; 0x80
 80020c4:	0249      	lsls	r1, r1, #9
 80020c6:	430a      	orrs	r2, r1
 80020c8:	601a      	str	r2, [r3, #0]
 80020ca:	e00b      	b.n	80020e4 <HAL_RCC_OscConfig+0xdc>
 80020cc:	4b99      	ldr	r3, [pc, #612]	; (8002334 <HAL_RCC_OscConfig+0x32c>)
 80020ce:	681a      	ldr	r2, [r3, #0]
 80020d0:	4b98      	ldr	r3, [pc, #608]	; (8002334 <HAL_RCC_OscConfig+0x32c>)
 80020d2:	4999      	ldr	r1, [pc, #612]	; (8002338 <HAL_RCC_OscConfig+0x330>)
 80020d4:	400a      	ands	r2, r1
 80020d6:	601a      	str	r2, [r3, #0]
 80020d8:	4b96      	ldr	r3, [pc, #600]	; (8002334 <HAL_RCC_OscConfig+0x32c>)
 80020da:	681a      	ldr	r2, [r3, #0]
 80020dc:	4b95      	ldr	r3, [pc, #596]	; (8002334 <HAL_RCC_OscConfig+0x32c>)
 80020de:	4997      	ldr	r1, [pc, #604]	; (800233c <HAL_RCC_OscConfig+0x334>)
 80020e0:	400a      	ands	r2, r1
 80020e2:	601a      	str	r2, [r3, #0]
 80020e4:	687b      	ldr	r3, [r7, #4]
 80020e6:	685b      	ldr	r3, [r3, #4]
 80020e8:	2b00      	cmp	r3, #0
 80020ea:	d014      	beq.n	8002116 <HAL_RCC_OscConfig+0x10e>
 80020ec:	f7fe fdec 	bl	8000cc8 <HAL_GetTick>
 80020f0:	0003      	movs	r3, r0
 80020f2:	61bb      	str	r3, [r7, #24]
 80020f4:	e008      	b.n	8002108 <HAL_RCC_OscConfig+0x100>
 80020f6:	f7fe fde7 	bl	8000cc8 <HAL_GetTick>
 80020fa:	0002      	movs	r2, r0
 80020fc:	69bb      	ldr	r3, [r7, #24]
 80020fe:	1ad3      	subs	r3, r2, r3
 8002100:	2b64      	cmp	r3, #100	; 0x64
 8002102:	d901      	bls.n	8002108 <HAL_RCC_OscConfig+0x100>
 8002104:	2303      	movs	r3, #3
 8002106:	e28a      	b.n	800261e <HAL_RCC_OscConfig+0x616>
 8002108:	4b8a      	ldr	r3, [pc, #552]	; (8002334 <HAL_RCC_OscConfig+0x32c>)
 800210a:	681a      	ldr	r2, [r3, #0]
 800210c:	2380      	movs	r3, #128	; 0x80
 800210e:	029b      	lsls	r3, r3, #10
 8002110:	4013      	ands	r3, r2
 8002112:	d0f0      	beq.n	80020f6 <HAL_RCC_OscConfig+0xee>
 8002114:	e015      	b.n	8002142 <HAL_RCC_OscConfig+0x13a>
 8002116:	f7fe fdd7 	bl	8000cc8 <HAL_GetTick>
 800211a:	0003      	movs	r3, r0
 800211c:	61bb      	str	r3, [r7, #24]
 800211e:	e008      	b.n	8002132 <HAL_RCC_OscConfig+0x12a>
 8002120:	f7fe fdd2 	bl	8000cc8 <HAL_GetTick>
 8002124:	0002      	movs	r2, r0
 8002126:	69bb      	ldr	r3, [r7, #24]
 8002128:	1ad3      	subs	r3, r2, r3
 800212a:	2b64      	cmp	r3, #100	; 0x64
 800212c:	d901      	bls.n	8002132 <HAL_RCC_OscConfig+0x12a>
 800212e:	2303      	movs	r3, #3
 8002130:	e275      	b.n	800261e <HAL_RCC_OscConfig+0x616>
 8002132:	4b80      	ldr	r3, [pc, #512]	; (8002334 <HAL_RCC_OscConfig+0x32c>)
 8002134:	681a      	ldr	r2, [r3, #0]
 8002136:	2380      	movs	r3, #128	; 0x80
 8002138:	029b      	lsls	r3, r3, #10
 800213a:	4013      	ands	r3, r2
 800213c:	d1f0      	bne.n	8002120 <HAL_RCC_OscConfig+0x118>
 800213e:	e000      	b.n	8002142 <HAL_RCC_OscConfig+0x13a>
 8002140:	46c0      	nop			; (mov r8, r8)
 8002142:	687b      	ldr	r3, [r7, #4]
 8002144:	681b      	ldr	r3, [r3, #0]
 8002146:	2202      	movs	r2, #2
 8002148:	4013      	ands	r3, r2
 800214a:	d100      	bne.n	800214e <HAL_RCC_OscConfig+0x146>
 800214c:	e069      	b.n	8002222 <HAL_RCC_OscConfig+0x21a>
 800214e:	4b79      	ldr	r3, [pc, #484]	; (8002334 <HAL_RCC_OscConfig+0x32c>)
 8002150:	685b      	ldr	r3, [r3, #4]
 8002152:	220c      	movs	r2, #12
 8002154:	4013      	ands	r3, r2
 8002156:	d00b      	beq.n	8002170 <HAL_RCC_OscConfig+0x168>
 8002158:	4b76      	ldr	r3, [pc, #472]	; (8002334 <HAL_RCC_OscConfig+0x32c>)
 800215a:	685b      	ldr	r3, [r3, #4]
 800215c:	220c      	movs	r2, #12
 800215e:	4013      	ands	r3, r2
 8002160:	2b08      	cmp	r3, #8
 8002162:	d11c      	bne.n	800219e <HAL_RCC_OscConfig+0x196>
 8002164:	4b73      	ldr	r3, [pc, #460]	; (8002334 <HAL_RCC_OscConfig+0x32c>)
 8002166:	685a      	ldr	r2, [r3, #4]
 8002168:	2380      	movs	r3, #128	; 0x80
 800216a:	025b      	lsls	r3, r3, #9
 800216c:	4013      	ands	r3, r2
 800216e:	d116      	bne.n	800219e <HAL_RCC_OscConfig+0x196>
 8002170:	4b70      	ldr	r3, [pc, #448]	; (8002334 <HAL_RCC_OscConfig+0x32c>)
 8002172:	681b      	ldr	r3, [r3, #0]
 8002174:	2202      	movs	r2, #2
 8002176:	4013      	ands	r3, r2
 8002178:	d005      	beq.n	8002186 <HAL_RCC_OscConfig+0x17e>
 800217a:	687b      	ldr	r3, [r7, #4]
 800217c:	68db      	ldr	r3, [r3, #12]
 800217e:	2b01      	cmp	r3, #1
 8002180:	d001      	beq.n	8002186 <HAL_RCC_OscConfig+0x17e>
 8002182:	2301      	movs	r3, #1
 8002184:	e24b      	b.n	800261e <HAL_RCC_OscConfig+0x616>
 8002186:	4b6b      	ldr	r3, [pc, #428]	; (8002334 <HAL_RCC_OscConfig+0x32c>)
 8002188:	681b      	ldr	r3, [r3, #0]
 800218a:	22f8      	movs	r2, #248	; 0xf8
 800218c:	4393      	bics	r3, r2
 800218e:	0019      	movs	r1, r3
 8002190:	687b      	ldr	r3, [r7, #4]
 8002192:	691b      	ldr	r3, [r3, #16]
 8002194:	00da      	lsls	r2, r3, #3
 8002196:	4b67      	ldr	r3, [pc, #412]	; (8002334 <HAL_RCC_OscConfig+0x32c>)
 8002198:	430a      	orrs	r2, r1
 800219a:	601a      	str	r2, [r3, #0]
 800219c:	e041      	b.n	8002222 <HAL_RCC_OscConfig+0x21a>
 800219e:	687b      	ldr	r3, [r7, #4]
 80021a0:	68db      	ldr	r3, [r3, #12]
 80021a2:	2b00      	cmp	r3, #0
 80021a4:	d024      	beq.n	80021f0 <HAL_RCC_OscConfig+0x1e8>
 80021a6:	4b63      	ldr	r3, [pc, #396]	; (8002334 <HAL_RCC_OscConfig+0x32c>)
 80021a8:	681a      	ldr	r2, [r3, #0]
 80021aa:	4b62      	ldr	r3, [pc, #392]	; (8002334 <HAL_RCC_OscConfig+0x32c>)
 80021ac:	2101      	movs	r1, #1
 80021ae:	430a      	orrs	r2, r1
 80021b0:	601a      	str	r2, [r3, #0]
 80021b2:	f7fe fd89 	bl	8000cc8 <HAL_GetTick>
 80021b6:	0003      	movs	r3, r0
 80021b8:	61bb      	str	r3, [r7, #24]
 80021ba:	e008      	b.n	80021ce <HAL_RCC_OscConfig+0x1c6>
 80021bc:	f7fe fd84 	bl	8000cc8 <HAL_GetTick>
 80021c0:	0002      	movs	r2, r0
 80021c2:	69bb      	ldr	r3, [r7, #24]
 80021c4:	1ad3      	subs	r3, r2, r3
 80021c6:	2b02      	cmp	r3, #2
 80021c8:	d901      	bls.n	80021ce <HAL_RCC_OscConfig+0x1c6>
 80021ca:	2303      	movs	r3, #3
 80021cc:	e227      	b.n	800261e <HAL_RCC_OscConfig+0x616>
 80021ce:	4b59      	ldr	r3, [pc, #356]	; (8002334 <HAL_RCC_OscConfig+0x32c>)
 80021d0:	681b      	ldr	r3, [r3, #0]
 80021d2:	2202      	movs	r2, #2
 80021d4:	4013      	ands	r3, r2
 80021d6:	d0f1      	beq.n	80021bc <HAL_RCC_OscConfig+0x1b4>
 80021d8:	4b56      	ldr	r3, [pc, #344]	; (8002334 <HAL_RCC_OscConfig+0x32c>)
 80021da:	681b      	ldr	r3, [r3, #0]
 80021dc:	22f8      	movs	r2, #248	; 0xf8
 80021de:	4393      	bics	r3, r2
 80021e0:	0019      	movs	r1, r3
 80021e2:	687b      	ldr	r3, [r7, #4]
 80021e4:	691b      	ldr	r3, [r3, #16]
 80021e6:	00da      	lsls	r2, r3, #3
 80021e8:	4b52      	ldr	r3, [pc, #328]	; (8002334 <HAL_RCC_OscConfig+0x32c>)
 80021ea:	430a      	orrs	r2, r1
 80021ec:	601a      	str	r2, [r3, #0]
 80021ee:	e018      	b.n	8002222 <HAL_RCC_OscConfig+0x21a>
 80021f0:	4b50      	ldr	r3, [pc, #320]	; (8002334 <HAL_RCC_OscConfig+0x32c>)
 80021f2:	681a      	ldr	r2, [r3, #0]
 80021f4:	4b4f      	ldr	r3, [pc, #316]	; (8002334 <HAL_RCC_OscConfig+0x32c>)
 80021f6:	2101      	movs	r1, #1
 80021f8:	438a      	bics	r2, r1
 80021fa:	601a      	str	r2, [r3, #0]
 80021fc:	f7fe fd64 	bl	8000cc8 <HAL_GetTick>
 8002200:	0003      	movs	r3, r0
 8002202:	61bb      	str	r3, [r7, #24]
 8002204:	e008      	b.n	8002218 <HAL_RCC_OscConfig+0x210>
 8002206:	f7fe fd5f 	bl	8000cc8 <HAL_GetTick>
 800220a:	0002      	movs	r2, r0
 800220c:	69bb      	ldr	r3, [r7, #24]
 800220e:	1ad3      	subs	r3, r2, r3
 8002210:	2b02      	cmp	r3, #2
 8002212:	d901      	bls.n	8002218 <HAL_RCC_OscConfig+0x210>
 8002214:	2303      	movs	r3, #3
 8002216:	e202      	b.n	800261e <HAL_RCC_OscConfig+0x616>
 8002218:	4b46      	ldr	r3, [pc, #280]	; (8002334 <HAL_RCC_OscConfig+0x32c>)
 800221a:	681b      	ldr	r3, [r3, #0]
 800221c:	2202      	movs	r2, #2
 800221e:	4013      	ands	r3, r2
 8002220:	d1f1      	bne.n	8002206 <HAL_RCC_OscConfig+0x1fe>
 8002222:	687b      	ldr	r3, [r7, #4]
 8002224:	681b      	ldr	r3, [r3, #0]
 8002226:	2208      	movs	r2, #8
 8002228:	4013      	ands	r3, r2
 800222a:	d036      	beq.n	800229a <HAL_RCC_OscConfig+0x292>
 800222c:	687b      	ldr	r3, [r7, #4]
 800222e:	69db      	ldr	r3, [r3, #28]
 8002230:	2b00      	cmp	r3, #0
 8002232:	d019      	beq.n	8002268 <HAL_RCC_OscConfig+0x260>
 8002234:	4b3f      	ldr	r3, [pc, #252]	; (8002334 <HAL_RCC_OscConfig+0x32c>)
 8002236:	6a5a      	ldr	r2, [r3, #36]	; 0x24
 8002238:	4b3e      	ldr	r3, [pc, #248]	; (8002334 <HAL_RCC_OscConfig+0x32c>)
 800223a:	2101      	movs	r1, #1
 800223c:	430a      	orrs	r2, r1
 800223e:	625a      	str	r2, [r3, #36]	; 0x24
 8002240:	f7fe fd42 	bl	8000cc8 <HAL_GetTick>
 8002244:	0003      	movs	r3, r0
 8002246:	61bb      	str	r3, [r7, #24]
 8002248:	e008      	b.n	800225c <HAL_RCC_OscConfig+0x254>
 800224a:	f7fe fd3d 	bl	8000cc8 <HAL_GetTick>
 800224e:	0002      	movs	r2, r0
 8002250:	69bb      	ldr	r3, [r7, #24]
 8002252:	1ad3      	subs	r3, r2, r3
 8002254:	2b02      	cmp	r3, #2
 8002256:	d901      	bls.n	800225c <HAL_RCC_OscConfig+0x254>
 8002258:	2303      	movs	r3, #3
 800225a:	e1e0      	b.n	800261e <HAL_RCC_OscConfig+0x616>
 800225c:	4b35      	ldr	r3, [pc, #212]	; (8002334 <HAL_RCC_OscConfig+0x32c>)
 800225e:	6a5b      	ldr	r3, [r3, #36]	; 0x24
 8002260:	2202      	movs	r2, #2
 8002262:	4013      	ands	r3, r2
 8002264:	d0f1      	beq.n	800224a <HAL_RCC_OscConfig+0x242>
 8002266:	e018      	b.n	800229a <HAL_RCC_OscConfig+0x292>
 8002268:	4b32      	ldr	r3, [pc, #200]	; (8002334 <HAL_RCC_OscConfig+0x32c>)
 800226a:	6a5a      	ldr	r2, [r3, #36]	; 0x24
 800226c:	4b31      	ldr	r3, [pc, #196]	; (8002334 <HAL_RCC_OscConfig+0x32c>)
 800226e:	2101      	movs	r1, #1
 8002270:	438a      	bics	r2, r1
 8002272:	625a      	str	r2, [r3, #36]	; 0x24
 8002274:	f7fe fd28 	bl	8000cc8 <HAL_GetTick>
 8002278:	0003      	movs	r3, r0
 800227a:	61bb      	str	r3, [r7, #24]
 800227c:	e008      	b.n	8002290 <HAL_RCC_OscConfig+0x288>
 800227e:	f7fe fd23 	bl	8000cc8 <HAL_GetTick>
 8002282:	0002      	movs	r2, r0
 8002284:	69bb      	ldr	r3, [r7, #24]
 8002286:	1ad3      	subs	r3, r2, r3
 8002288:	2b02      	cmp	r3, #2
 800228a:	d901      	bls.n	8002290 <HAL_RCC_OscConfig+0x288>
 800228c:	2303      	movs	r3, #3
 800228e:	e1c6      	b.n	800261e <HAL_RCC_OscConfig+0x616>
 8002290:	4b28      	ldr	r3, [pc, #160]	; (8002334 <HAL_RCC_OscConfig+0x32c>)
 8002292:	6a5b      	ldr	r3, [r3, #36]	; 0x24
 8002294:	2202      	movs	r2, #2
 8002296:	4013      	ands	r3, r2
 8002298:	d1f1      	bne.n	800227e <HAL_RCC_OscConfig+0x276>
 800229a:	687b      	ldr	r3, [r7, #4]
 800229c:	681b      	ldr	r3, [r3, #0]
 800229e:	2204      	movs	r2, #4
 80022a0:	4013      	ands	r3, r2
 80022a2:	d100      	bne.n	80022a6 <HAL_RCC_OscConfig+0x29e>
 80022a4:	e0b4      	b.n	8002410 <HAL_RCC_OscConfig+0x408>
 80022a6:	201f      	movs	r0, #31
 80022a8:	183b      	adds	r3, r7, r0
 80022aa:	2200      	movs	r2, #0
 80022ac:	701a      	strb	r2, [r3, #0]
 80022ae:	4b21      	ldr	r3, [pc, #132]	; (8002334 <HAL_RCC_OscConfig+0x32c>)
 80022b0:	69da      	ldr	r2, [r3, #28]
 80022b2:	2380      	movs	r3, #128	; 0x80
 80022b4:	055b      	lsls	r3, r3, #21
 80022b6:	4013      	ands	r3, r2
 80022b8:	d110      	bne.n	80022dc <HAL_RCC_OscConfig+0x2d4>
 80022ba:	4b1e      	ldr	r3, [pc, #120]	; (8002334 <HAL_RCC_OscConfig+0x32c>)
 80022bc:	69da      	ldr	r2, [r3, #28]
 80022be:	4b1d      	ldr	r3, [pc, #116]	; (8002334 <HAL_RCC_OscConfig+0x32c>)
 80022c0:	2180      	movs	r1, #128	; 0x80
 80022c2:	0549      	lsls	r1, r1, #21
 80022c4:	430a      	orrs	r2, r1
 80022c6:	61da      	str	r2, [r3, #28]
 80022c8:	4b1a      	ldr	r3, [pc, #104]	; (8002334 <HAL_RCC_OscConfig+0x32c>)
 80022ca:	69da      	ldr	r2, [r3, #28]
 80022cc:	2380      	movs	r3, #128	; 0x80
 80022ce:	055b      	lsls	r3, r3, #21
 80022d0:	4013      	ands	r3, r2
 80022d2:	60fb      	str	r3, [r7, #12]
 80022d4:	68fb      	ldr	r3, [r7, #12]
 80022d6:	183b      	adds	r3, r7, r0
 80022d8:	2201      	movs	r2, #1
 80022da:	701a      	strb	r2, [r3, #0]
 80022dc:	4b18      	ldr	r3, [pc, #96]	; (8002340 <HAL_RCC_OscConfig+0x338>)
 80022de:	681a      	ldr	r2, [r3, #0]
 80022e0:	2380      	movs	r3, #128	; 0x80
 80022e2:	005b      	lsls	r3, r3, #1
 80022e4:	4013      	ands	r3, r2
 80022e6:	d11a      	bne.n	800231e <HAL_RCC_OscConfig+0x316>
 80022e8:	4b15      	ldr	r3, [pc, #84]	; (8002340 <HAL_RCC_OscConfig+0x338>)
 80022ea:	681a      	ldr	r2, [r3, #0]
 80022ec:	4b14      	ldr	r3, [pc, #80]	; (8002340 <HAL_RCC_OscConfig+0x338>)
 80022ee:	2180      	movs	r1, #128	; 0x80
 80022f0:	0049      	lsls	r1, r1, #1
 80022f2:	430a      	orrs	r2, r1
 80022f4:	601a      	str	r2, [r3, #0]
 80022f6:	f7fe fce7 	bl	8000cc8 <HAL_GetTick>
 80022fa:	0003      	movs	r3, r0
 80022fc:	61bb      	str	r3, [r7, #24]
 80022fe:	e008      	b.n	8002312 <HAL_RCC_OscConfig+0x30a>
 8002300:	f7fe fce2 	bl	8000cc8 <HAL_GetTick>
 8002304:	0002      	movs	r2, r0
 8002306:	69bb      	ldr	r3, [r7, #24]
 8002308:	1ad3      	subs	r3, r2, r3
 800230a:	2b64      	cmp	r3, #100	; 0x64
 800230c:	d901      	bls.n	8002312 <HAL_RCC_OscConfig+0x30a>
 800230e:	2303      	movs	r3, #3
 8002310:	e185      	b.n	800261e <HAL_RCC_OscConfig+0x616>
 8002312:	4b0b      	ldr	r3, [pc, #44]	; (8002340 <HAL_RCC_OscConfig+0x338>)
 8002314:	681a      	ldr	r2, [r3, #0]
 8002316:	2380      	movs	r3, #128	; 0x80
 8002318:	005b      	lsls	r3, r3, #1
 800231a:	4013      	ands	r3, r2
 800231c:	d0f0      	beq.n	8002300 <HAL_RCC_OscConfig+0x2f8>
 800231e:	687b      	ldr	r3, [r7, #4]
 8002320:	689b      	ldr	r3, [r3, #8]
 8002322:	2b01      	cmp	r3, #1
 8002324:	d10e      	bne.n	8002344 <HAL_RCC_OscConfig+0x33c>
 8002326:	4b03      	ldr	r3, [pc, #12]	; (8002334 <HAL_RCC_OscConfig+0x32c>)
 8002328:	6a1a      	ldr	r2, [r3, #32]
 800232a:	4b02      	ldr	r3, [pc, #8]	; (8002334 <HAL_RCC_OscConfig+0x32c>)
 800232c:	2101      	movs	r1, #1
 800232e:	430a      	orrs	r2, r1
 8002330:	621a      	str	r2, [r3, #32]
 8002332:	e035      	b.n	80023a0 <HAL_RCC_OscConfig+0x398>
 8002334:	40021000 	.word	0x40021000
 8002338:	fffeffff 	.word	0xfffeffff
 800233c:	fffbffff 	.word	0xfffbffff
 8002340:	40007000 	.word	0x40007000
 8002344:	687b      	ldr	r3, [r7, #4]
 8002346:	689b      	ldr	r3, [r3, #8]
 8002348:	2b00      	cmp	r3, #0
 800234a:	d10c      	bne.n	8002366 <HAL_RCC_OscConfig+0x35e>
 800234c:	4bb6      	ldr	r3, [pc, #728]	; (8002628 <HAL_RCC_OscConfig+0x620>)
 800234e:	6a1a      	ldr	r2, [r3, #32]
 8002350:	4bb5      	ldr	r3, [pc, #724]	; (8002628 <HAL_RCC_OscConfig+0x620>)
 8002352:	2101      	movs	r1, #1
 8002354:	438a      	bics	r2, r1
 8002356:	621a      	str	r2, [r3, #32]
 8002358:	4bb3      	ldr	r3, [pc, #716]	; (8002628 <HAL_RCC_OscConfig+0x620>)
 800235a:	6a1a      	ldr	r2, [r3, #32]
 800235c:	4bb2      	ldr	r3, [pc, #712]	; (8002628 <HAL_RCC_OscConfig+0x620>)
 800235e:	2104      	movs	r1, #4
 8002360:	438a      	bics	r2, r1
 8002362:	621a      	str	r2, [r3, #32]
 8002364:	e01c      	b.n	80023a0 <HAL_RCC_OscConfig+0x398>
 8002366:	687b      	ldr	r3, [r7, #4]
 8002368:	689b      	ldr	r3, [r3, #8]
 800236a:	2b05      	cmp	r3, #5
 800236c:	d10c      	bne.n	8002388 <HAL_RCC_OscConfig+0x380>
 800236e:	4bae      	ldr	r3, [pc, #696]	; (8002628 <HAL_RCC_OscConfig+0x620>)
 8002370:	6a1a      	ldr	r2, [r3, #32]
 8002372:	4bad      	ldr	r3, [pc, #692]	; (8002628 <HAL_RCC_OscConfig+0x620>)
 8002374:	2104      	movs	r1, #4
 8002376:	430a      	orrs	r2, r1
 8002378:	621a      	str	r2, [r3, #32]
 800237a:	4bab      	ldr	r3, [pc, #684]	; (8002628 <HAL_RCC_OscConfig+0x620>)
 800237c:	6a1a      	ldr	r2, [r3, #32]
 800237e:	4baa      	ldr	r3, [pc, #680]	; (8002628 <HAL_RCC_OscConfig+0x620>)
 8002380:	2101      	movs	r1, #1
 8002382:	430a      	orrs	r2, r1
 8002384:	621a      	str	r2, [r3, #32]
 8002386:	e00b      	b.n	80023a0 <HAL_RCC_OscConfig+0x398>
 8002388:	4ba7      	ldr	r3, [pc, #668]	; (8002628 <HAL_RCC_OscConfig+0x620>)
 800238a:	6a1a      	ldr	r2, [r3, #32]
 800238c:	4ba6      	ldr	r3, [pc, #664]	; (8002628 <HAL_RCC_OscConfig+0x620>)
 800238e:	2101      	movs	r1, #1
 8002390:	438a      	bics	r2, r1
 8002392:	621a      	str	r2, [r3, #32]
 8002394:	4ba4      	ldr	r3, [pc, #656]	; (8002628 <HAL_RCC_OscConfig+0x620>)
 8002396:	6a1a      	ldr	r2, [r3, #32]
 8002398:	4ba3      	ldr	r3, [pc, #652]	; (8002628 <HAL_RCC_OscConfig+0x620>)
 800239a:	2104      	movs	r1, #4
 800239c:	438a      	bics	r2, r1
 800239e:	621a      	str	r2, [r3, #32]
 80023a0:	687b      	ldr	r3, [r7, #4]
 80023a2:	689b      	ldr	r3, [r3, #8]
 80023a4:	2b00      	cmp	r3, #0
 80023a6:	d014      	beq.n	80023d2 <HAL_RCC_OscConfig+0x3ca>
 80023a8:	f7fe fc8e 	bl	8000cc8 <HAL_GetTick>
 80023ac:	0003      	movs	r3, r0
 80023ae:	61bb      	str	r3, [r7, #24]
 80023b0:	e009      	b.n	80023c6 <HAL_RCC_OscConfig+0x3be>
 80023b2:	f7fe fc89 	bl	8000cc8 <HAL_GetTick>
 80023b6:	0002      	movs	r2, r0
 80023b8:	69bb      	ldr	r3, [r7, #24]
 80023ba:	1ad3      	subs	r3, r2, r3
 80023bc:	4a9b      	ldr	r2, [pc, #620]	; (800262c <HAL_RCC_OscConfig+0x624>)
 80023be:	4293      	cmp	r3, r2
 80023c0:	d901      	bls.n	80023c6 <HAL_RCC_OscConfig+0x3be>
 80023c2:	2303      	movs	r3, #3
 80023c4:	e12b      	b.n	800261e <HAL_RCC_OscConfig+0x616>
 80023c6:	4b98      	ldr	r3, [pc, #608]	; (8002628 <HAL_RCC_OscConfig+0x620>)
 80023c8:	6a1b      	ldr	r3, [r3, #32]
 80023ca:	2202      	movs	r2, #2
 80023cc:	4013      	ands	r3, r2
 80023ce:	d0f0      	beq.n	80023b2 <HAL_RCC_OscConfig+0x3aa>
 80023d0:	e013      	b.n	80023fa <HAL_RCC_OscConfig+0x3f2>
 80023d2:	f7fe fc79 	bl	8000cc8 <HAL_GetTick>
 80023d6:	0003      	movs	r3, r0
 80023d8:	61bb      	str	r3, [r7, #24]
 80023da:	e009      	b.n	80023f0 <HAL_RCC_OscConfig+0x3e8>
 80023dc:	f7fe fc74 	bl	8000cc8 <HAL_GetTick>
 80023e0:	0002      	movs	r2, r0
 80023e2:	69bb      	ldr	r3, [r7, #24]
 80023e4:	1ad3      	subs	r3, r2, r3
 80023e6:	4a91      	ldr	r2, [pc, #580]	; (800262c <HAL_RCC_OscConfig+0x624>)
 80023e8:	4293      	cmp	r3, r2
 80023ea:	d901      	bls.n	80023f0 <HAL_RCC_OscConfig+0x3e8>
 80023ec:	2303      	movs	r3, #3
 80023ee:	e116      	b.n	800261e <HAL_RCC_OscConfig+0x616>
 80023f0:	4b8d      	ldr	r3, [pc, #564]	; (8002628 <HAL_RCC_OscConfig+0x620>)
 80023f2:	6a1b      	ldr	r3, [r3, #32]
 80023f4:	2202      	movs	r2, #2
 80023f6:	4013      	ands	r3, r2
 80023f8:	d1f0      	bne.n	80023dc <HAL_RCC_OscConfig+0x3d4>
 80023fa:	231f      	movs	r3, #31
 80023fc:	18fb      	adds	r3, r7, r3
 80023fe:	781b      	ldrb	r3, [r3, #0]
 8002400:	2b01      	cmp	r3, #1
 8002402:	d105      	bne.n	8002410 <HAL_RCC_OscConfig+0x408>
 8002404:	4b88      	ldr	r3, [pc, #544]	; (8002628 <HAL_RCC_OscConfig+0x620>)
 8002406:	69da      	ldr	r2, [r3, #28]
 8002408:	4b87      	ldr	r3, [pc, #540]	; (8002628 <HAL_RCC_OscConfig+0x620>)
 800240a:	4989      	ldr	r1, [pc, #548]	; (8002630 <HAL_RCC_OscConfig+0x628>)
 800240c:	400a      	ands	r2, r1
 800240e:	61da      	str	r2, [r3, #28]
 8002410:	687b      	ldr	r3, [r7, #4]
 8002412:	681b      	ldr	r3, [r3, #0]
 8002414:	2210      	movs	r2, #16
 8002416:	4013      	ands	r3, r2
 8002418:	d063      	beq.n	80024e2 <HAL_RCC_OscConfig+0x4da>
 800241a:	687b      	ldr	r3, [r7, #4]
 800241c:	695b      	ldr	r3, [r3, #20]
 800241e:	2b01      	cmp	r3, #1
 8002420:	d12a      	bne.n	8002478 <HAL_RCC_OscConfig+0x470>
 8002422:	4b81      	ldr	r3, [pc, #516]	; (8002628 <HAL_RCC_OscConfig+0x620>)
 8002424:	6b5a      	ldr	r2, [r3, #52]	; 0x34
 8002426:	4b80      	ldr	r3, [pc, #512]	; (8002628 <HAL_RCC_OscConfig+0x620>)
 8002428:	2104      	movs	r1, #4
 800242a:	430a      	orrs	r2, r1
 800242c:	635a      	str	r2, [r3, #52]	; 0x34
 800242e:	4b7e      	ldr	r3, [pc, #504]	; (8002628 <HAL_RCC_OscConfig+0x620>)
 8002430:	6b5a      	ldr	r2, [r3, #52]	; 0x34
 8002432:	4b7d      	ldr	r3, [pc, #500]	; (8002628 <HAL_RCC_OscConfig+0x620>)
 8002434:	2101      	movs	r1, #1
 8002436:	430a      	orrs	r2, r1
 8002438:	635a      	str	r2, [r3, #52]	; 0x34
 800243a:	f7fe fc45 	bl	8000cc8 <HAL_GetTick>
 800243e:	0003      	movs	r3, r0
 8002440:	61bb      	str	r3, [r7, #24]
 8002442:	e008      	b.n	8002456 <HAL_RCC_OscConfig+0x44e>
 8002444:	f7fe fc40 	bl	8000cc8 <HAL_GetTick>
 8002448:	0002      	movs	r2, r0
 800244a:	69bb      	ldr	r3, [r7, #24]
 800244c:	1ad3      	subs	r3, r2, r3
 800244e:	2b02      	cmp	r3, #2
 8002450:	d901      	bls.n	8002456 <HAL_RCC_OscConfig+0x44e>
 8002452:	2303      	movs	r3, #3
 8002454:	e0e3      	b.n	800261e <HAL_RCC_OscConfig+0x616>
 8002456:	4b74      	ldr	r3, [pc, #464]	; (8002628 <HAL_RCC_OscConfig+0x620>)
 8002458:	6b5b      	ldr	r3, [r3, #52]	; 0x34
 800245a:	2202      	movs	r2, #2
 800245c:	4013      	ands	r3, r2
 800245e:	d0f1      	beq.n	8002444 <HAL_RCC_OscConfig+0x43c>
 8002460:	4b71      	ldr	r3, [pc, #452]	; (8002628 <HAL_RCC_OscConfig+0x620>)
 8002462:	6b5b      	ldr	r3, [r3, #52]	; 0x34
 8002464:	22f8      	movs	r2, #248	; 0xf8
 8002466:	4393      	bics	r3, r2
 8002468:	0019      	movs	r1, r3
 800246a:	687b      	ldr	r3, [r7, #4]
 800246c:	699b      	ldr	r3, [r3, #24]
 800246e:	00da      	lsls	r2, r3, #3
 8002470:	4b6d      	ldr	r3, [pc, #436]	; (8002628 <HAL_RCC_OscConfig+0x620>)
 8002472:	430a      	orrs	r2, r1
 8002474:	635a      	str	r2, [r3, #52]	; 0x34
 8002476:	e034      	b.n	80024e2 <HAL_RCC_OscConfig+0x4da>
 8002478:	687b      	ldr	r3, [r7, #4]
 800247a:	695b      	ldr	r3, [r3, #20]
 800247c:	3305      	adds	r3, #5
 800247e:	d111      	bne.n	80024a4 <HAL_RCC_OscConfig+0x49c>
 8002480:	4b69      	ldr	r3, [pc, #420]	; (8002628 <HAL_RCC_OscConfig+0x620>)
 8002482:	6b5a      	ldr	r2, [r3, #52]	; 0x34
 8002484:	4b68      	ldr	r3, [pc, #416]	; (8002628 <HAL_RCC_OscConfig+0x620>)
 8002486:	2104      	movs	r1, #4
 8002488:	438a      	bics	r2, r1
 800248a:	635a      	str	r2, [r3, #52]	; 0x34
 800248c:	4b66      	ldr	r3, [pc, #408]	; (8002628 <HAL_RCC_OscConfig+0x620>)
 800248e:	6b5b      	ldr	r3, [r3, #52]	; 0x34
 8002490:	22f8      	movs	r2, #248	; 0xf8
 8002492:	4393      	bics	r3, r2
 8002494:	0019      	movs	r1, r3
 8002496:	687b      	ldr	r3, [r7, #4]
 8002498:	699b      	ldr	r3, [r3, #24]
 800249a:	00da      	lsls	r2, r3, #3
 800249c:	4b62      	ldr	r3, [pc, #392]	; (8002628 <HAL_RCC_OscConfig+0x620>)
 800249e:	430a      	orrs	r2, r1
 80024a0:	635a      	str	r2, [r3, #52]	; 0x34
 80024a2:	e01e      	b.n	80024e2 <HAL_RCC_OscConfig+0x4da>
 80024a4:	4b60      	ldr	r3, [pc, #384]	; (8002628 <HAL_RCC_OscConfig+0x620>)
 80024a6:	6b5a      	ldr	r2, [r3, #52]	; 0x34
 80024a8:	4b5f      	ldr	r3, [pc, #380]	; (8002628 <HAL_RCC_OscConfig+0x620>)
 80024aa:	2104      	movs	r1, #4
 80024ac:	430a      	orrs	r2, r1
 80024ae:	635a      	str	r2, [r3, #52]	; 0x34
 80024b0:	4b5d      	ldr	r3, [pc, #372]	; (8002628 <HAL_RCC_OscConfig+0x620>)
 80024b2:	6b5a      	ldr	r2, [r3, #52]	; 0x34
 80024b4:	4b5c      	ldr	r3, [pc, #368]	; (8002628 <HAL_RCC_OscConfig+0x620>)
 80024b6:	2101      	movs	r1, #1
 80024b8:	438a      	bics	r2, r1
 80024ba:	635a      	str	r2, [r3, #52]	; 0x34
 80024bc:	f7fe fc04 	bl	8000cc8 <HAL_GetTick>
 80024c0:	0003      	movs	r3, r0
 80024c2:	61bb      	str	r3, [r7, #24]
 80024c4:	e008      	b.n	80024d8 <HAL_RCC_OscConfig+0x4d0>
 80024c6:	f7fe fbff 	bl	8000cc8 <HAL_GetTick>
 80024ca:	0002      	movs	r2, r0
 80024cc:	69bb      	ldr	r3, [r7, #24]
 80024ce:	1ad3      	subs	r3, r2, r3
 80024d0:	2b02      	cmp	r3, #2
 80024d2:	d901      	bls.n	80024d8 <HAL_RCC_OscConfig+0x4d0>
 80024d4:	2303      	movs	r3, #3
 80024d6:	e0a2      	b.n	800261e <HAL_RCC_OscConfig+0x616>
 80024d8:	4b53      	ldr	r3, [pc, #332]	; (8002628 <HAL_RCC_OscConfig+0x620>)
 80024da:	6b5b      	ldr	r3, [r3, #52]	; 0x34
 80024dc:	2202      	movs	r2, #2
 80024de:	4013      	ands	r3, r2
 80024e0:	d1f1      	bne.n	80024c6 <HAL_RCC_OscConfig+0x4be>
 80024e2:	687b      	ldr	r3, [r7, #4]
 80024e4:	6a1b      	ldr	r3, [r3, #32]
 80024e6:	2b00      	cmp	r3, #0
 80024e8:	d100      	bne.n	80024ec <HAL_RCC_OscConfig+0x4e4>
 80024ea:	e097      	b.n	800261c <HAL_RCC_OscConfig+0x614>
 80024ec:	4b4e      	ldr	r3, [pc, #312]	; (8002628 <HAL_RCC_OscConfig+0x620>)
 80024ee:	685b      	ldr	r3, [r3, #4]
 80024f0:	220c      	movs	r2, #12
 80024f2:	4013      	ands	r3, r2
 80024f4:	2b08      	cmp	r3, #8
 80024f6:	d100      	bne.n	80024fa <HAL_RCC_OscConfig+0x4f2>
 80024f8:	e06b      	b.n	80025d2 <HAL_RCC_OscConfig+0x5ca>
 80024fa:	687b      	ldr	r3, [r7, #4]
 80024fc:	6a1b      	ldr	r3, [r3, #32]
 80024fe:	2b02      	cmp	r3, #2
 8002500:	d14c      	bne.n	800259c <HAL_RCC_OscConfig+0x594>
 8002502:	4b49      	ldr	r3, [pc, #292]	; (8002628 <HAL_RCC_OscConfig+0x620>)
 8002504:	681a      	ldr	r2, [r3, #0]
 8002506:	4b48      	ldr	r3, [pc, #288]	; (8002628 <HAL_RCC_OscConfig+0x620>)
 8002508:	494a      	ldr	r1, [pc, #296]	; (8002634 <HAL_RCC_OscConfig+0x62c>)
 800250a:	400a      	ands	r2, r1
 800250c:	601a      	str	r2, [r3, #0]
 800250e:	f7fe fbdb 	bl	8000cc8 <HAL_GetTick>
 8002512:	0003      	movs	r3, r0
 8002514:	61bb      	str	r3, [r7, #24]
 8002516:	e008      	b.n	800252a <HAL_RCC_OscConfig+0x522>
 8002518:	f7fe fbd6 	bl	8000cc8 <HAL_GetTick>
 800251c:	0002      	movs	r2, r0
 800251e:	69bb      	ldr	r3, [r7, #24]
 8002520:	1ad3      	subs	r3, r2, r3
 8002522:	2b02      	cmp	r3, #2
 8002524:	d901      	bls.n	800252a <HAL_RCC_OscConfig+0x522>
 8002526:	2303      	movs	r3, #3
 8002528:	e079      	b.n	800261e <HAL_RCC_OscConfig+0x616>
 800252a:	4b3f      	ldr	r3, [pc, #252]	; (8002628 <HAL_RCC_OscConfig+0x620>)
 800252c:	681a      	ldr	r2, [r3, #0]
 800252e:	2380      	movs	r3, #128	; 0x80
 8002530:	049b      	lsls	r3, r3, #18
 8002532:	4013      	ands	r3, r2
 8002534:	d1f0      	bne.n	8002518 <HAL_RCC_OscConfig+0x510>
 8002536:	4b3c      	ldr	r3, [pc, #240]	; (8002628 <HAL_RCC_OscConfig+0x620>)
 8002538:	6adb      	ldr	r3, [r3, #44]	; 0x2c
 800253a:	220f      	movs	r2, #15
 800253c:	4393      	bics	r3, r2
 800253e:	0019      	movs	r1, r3
 8002540:	687b      	ldr	r3, [r7, #4]
 8002542:	6ada      	ldr	r2, [r3, #44]	; 0x2c
 8002544:	4b38      	ldr	r3, [pc, #224]	; (8002628 <HAL_RCC_OscConfig+0x620>)
 8002546:	430a      	orrs	r2, r1
 8002548:	62da      	str	r2, [r3, #44]	; 0x2c
 800254a:	4b37      	ldr	r3, [pc, #220]	; (8002628 <HAL_RCC_OscConfig+0x620>)
 800254c:	685b      	ldr	r3, [r3, #4]
 800254e:	4a3a      	ldr	r2, [pc, #232]	; (8002638 <HAL_RCC_OscConfig+0x630>)
 8002550:	4013      	ands	r3, r2
 8002552:	0019      	movs	r1, r3
 8002554:	687b      	ldr	r3, [r7, #4]
 8002556:	6a9a      	ldr	r2, [r3, #40]	; 0x28
 8002558:	687b      	ldr	r3, [r7, #4]
 800255a:	6a5b      	ldr	r3, [r3, #36]	; 0x24
 800255c:	431a      	orrs	r2, r3
 800255e:	4b32      	ldr	r3, [pc, #200]	; (8002628 <HAL_RCC_OscConfig+0x620>)
 8002560:	430a      	orrs	r2, r1
 8002562:	605a      	str	r2, [r3, #4]
 8002564:	4b30      	ldr	r3, [pc, #192]	; (8002628 <HAL_RCC_OscConfig+0x620>)
 8002566:	681a      	ldr	r2, [r3, #0]
 8002568:	4b2f      	ldr	r3, [pc, #188]	; (8002628 <HAL_RCC_OscConfig+0x620>)
 800256a:	2180      	movs	r1, #128	; 0x80
 800256c:	0449      	lsls	r1, r1, #17
 800256e:	430a      	orrs	r2, r1
 8002570:	601a      	str	r2, [r3, #0]
 8002572:	f7fe fba9 	bl	8000cc8 <HAL_GetTick>
 8002576:	0003      	movs	r3, r0
 8002578:	61bb      	str	r3, [r7, #24]
 800257a:	e008      	b.n	800258e <HAL_RCC_OscConfig+0x586>
 800257c:	f7fe fba4 	bl	8000cc8 <HAL_GetTick>
 8002580:	0002      	movs	r2, r0
 8002582:	69bb      	ldr	r3, [r7, #24]
 8002584:	1ad3      	subs	r3, r2, r3
 8002586:	2b02      	cmp	r3, #2
 8002588:	d901      	bls.n	800258e <HAL_RCC_OscConfig+0x586>
 800258a:	2303      	movs	r3, #3
 800258c:	e047      	b.n	800261e <HAL_RCC_OscConfig+0x616>
 800258e:	4b26      	ldr	r3, [pc, #152]	; (8002628 <HAL_RCC_OscConfig+0x620>)
 8002590:	681a      	ldr	r2, [r3, #0]
 8002592:	2380      	movs	r3, #128	; 0x80
 8002594:	049b      	lsls	r3, r3, #18
 8002596:	4013      	ands	r3, r2
 8002598:	d0f0      	beq.n	800257c <HAL_RCC_OscConfig+0x574>
 800259a:	e03f      	b.n	800261c <HAL_RCC_OscConfig+0x614>
 800259c:	4b22      	ldr	r3, [pc, #136]	; (8002628 <HAL_RCC_OscConfig+0x620>)
 800259e:	681a      	ldr	r2, [r3, #0]
 80025a0:	4b21      	ldr	r3, [pc, #132]	; (8002628 <HAL_RCC_OscConfig+0x620>)
 80025a2:	4924      	ldr	r1, [pc, #144]	; (8002634 <HAL_RCC_OscConfig+0x62c>)
 80025a4:	400a      	ands	r2, r1
 80025a6:	601a      	str	r2, [r3, #0]
 80025a8:	f7fe fb8e 	bl	8000cc8 <HAL_GetTick>
 80025ac:	0003      	movs	r3, r0
 80025ae:	61bb      	str	r3, [r7, #24]
 80025b0:	e008      	b.n	80025c4 <HAL_RCC_OscConfig+0x5bc>
 80025b2:	f7fe fb89 	bl	8000cc8 <HAL_GetTick>
 80025b6:	0002      	movs	r2, r0
 80025b8:	69bb      	ldr	r3, [r7, #24]
 80025ba:	1ad3      	subs	r3, r2, r3
 80025bc:	2b02      	cmp	r3, #2
 80025be:	d901      	bls.n	80025c4 <HAL_RCC_OscConfig+0x5bc>
 80025c0:	2303      	movs	r3, #3
 80025c2:	e02c      	b.n	800261e <HAL_RCC_OscConfig+0x616>
 80025c4:	4b18      	ldr	r3, [pc, #96]	; (8002628 <HAL_RCC_OscConfig+0x620>)
 80025c6:	681a      	ldr	r2, [r3, #0]
 80025c8:	2380      	movs	r3, #128	; 0x80
 80025ca:	049b      	lsls	r3, r3, #18
 80025cc:	4013      	ands	r3, r2
 80025ce:	d1f0      	bne.n	80025b2 <HAL_RCC_OscConfig+0x5aa>
 80025d0:	e024      	b.n	800261c <HAL_RCC_OscConfig+0x614>
 80025d2:	687b      	ldr	r3, [r7, #4]
 80025d4:	6a1b      	ldr	r3, [r3, #32]
 80025d6:	2b01      	cmp	r3, #1
 80025d8:	d101      	bne.n	80025de <HAL_RCC_OscConfig+0x5d6>
 80025da:	2301      	movs	r3, #1
 80025dc:	e01f      	b.n	800261e <HAL_RCC_OscConfig+0x616>
 80025de:	4b12      	ldr	r3, [pc, #72]	; (8002628 <HAL_RCC_OscConfig+0x620>)
 80025e0:	685b      	ldr	r3, [r3, #4]
 80025e2:	617b      	str	r3, [r7, #20]
 80025e4:	4b10      	ldr	r3, [pc, #64]	; (8002628 <HAL_RCC_OscConfig+0x620>)
 80025e6:	6adb      	ldr	r3, [r3, #44]	; 0x2c
 80025e8:	613b      	str	r3, [r7, #16]
 80025ea:	697a      	ldr	r2, [r7, #20]
 80025ec:	2380      	movs	r3, #128	; 0x80
 80025ee:	025b      	lsls	r3, r3, #9
 80025f0:	401a      	ands	r2, r3
 80025f2:	687b      	ldr	r3, [r7, #4]
 80025f4:	6a5b      	ldr	r3, [r3, #36]	; 0x24
 80025f6:	429a      	cmp	r2, r3
 80025f8:	d10e      	bne.n	8002618 <HAL_RCC_OscConfig+0x610>
 80025fa:	693b      	ldr	r3, [r7, #16]
 80025fc:	220f      	movs	r2, #15
 80025fe:	401a      	ands	r2, r3
 8002600:	687b      	ldr	r3, [r7, #4]
 8002602:	6adb      	ldr	r3, [r3, #44]	; 0x2c
 8002604:	429a      	cmp	r2, r3
 8002606:	d107      	bne.n	8002618 <HAL_RCC_OscConfig+0x610>
 8002608:	697a      	ldr	r2, [r7, #20]
 800260a:	23f0      	movs	r3, #240	; 0xf0
 800260c:	039b      	lsls	r3, r3, #14
 800260e:	401a      	ands	r2, r3
 8002610:	687b      	ldr	r3, [r7, #4]
 8002612:	6a9b      	ldr	r3, [r3, #40]	; 0x28
 8002614:	429a      	cmp	r2, r3
 8002616:	d001      	beq.n	800261c <HAL_RCC_OscConfig+0x614>
 8002618:	2301      	movs	r3, #1
 800261a:	e000      	b.n	800261e <HAL_RCC_OscConfig+0x616>
 800261c:	2300      	movs	r3, #0
 800261e:	0018      	movs	r0, r3
 8002620:	46bd      	mov	sp, r7
 8002622:	b008      	add	sp, #32
 8002624:	bd80      	pop	{r7, pc}
 8002626:	46c0      	nop			; (mov r8, r8)
 8002628:	40021000 	.word	0x40021000
 800262c:	00001388 	.word	0x00001388
 8002630:	efffffff 	.word	0xefffffff
 8002634:	feffffff 	.word	0xfeffffff
 8002638:	ffc2ffff 	.word	0xffc2ffff

0800263c <HAL_RCC_ClockConfig>:
 800263c:	b580      	push	{r7, lr}
 800263e:	b084      	sub	sp, #16
 8002640:	af00      	add	r7, sp, #0
 8002642:	6078      	str	r0, [r7, #4]
 8002644:	6039      	str	r1, [r7, #0]
 8002646:	687b      	ldr	r3, [r7, #4]
 8002648:	2b00      	cmp	r3, #0
 800264a:	d101      	bne.n	8002650 <HAL_RCC_ClockConfig+0x14>
 800264c:	2301      	movs	r3, #1
 800264e:	e0b3      	b.n	80027b8 <HAL_RCC_ClockConfig+0x17c>
 8002650:	4b5b      	ldr	r3, [pc, #364]	; (80027c0 <HAL_RCC_ClockConfig+0x184>)
 8002652:	681b      	ldr	r3, [r3, #0]
 8002654:	2201      	movs	r2, #1
 8002656:	4013      	ands	r3, r2
 8002658:	683a      	ldr	r2, [r7, #0]
 800265a:	429a      	cmp	r2, r3
 800265c:	d911      	bls.n	8002682 <HAL_RCC_ClockConfig+0x46>
 800265e:	4b58      	ldr	r3, [pc, #352]	; (80027c0 <HAL_RCC_ClockConfig+0x184>)
 8002660:	681b      	ldr	r3, [r3, #0]
 8002662:	2201      	movs	r2, #1
 8002664:	4393      	bics	r3, r2
 8002666:	0019      	movs	r1, r3
 8002668:	4b55      	ldr	r3, [pc, #340]	; (80027c0 <HAL_RCC_ClockConfig+0x184>)
 800266a:	683a      	ldr	r2, [r7, #0]
 800266c:	430a      	orrs	r2, r1
 800266e:	601a      	str	r2, [r3, #0]
 8002670:	4b53      	ldr	r3, [pc, #332]	; (80027c0 <HAL_RCC_ClockConfig+0x184>)
 8002672:	681b      	ldr	r3, [r3, #0]
 8002674:	2201      	movs	r2, #1
 8002676:	4013      	ands	r3, r2
 8002678:	683a      	ldr	r2, [r7, #0]
 800267a:	429a      	cmp	r2, r3
 800267c:	d001      	beq.n	8002682 <HAL_RCC_ClockConfig+0x46>
 800267e:	2301      	movs	r3, #1
 8002680:	e09a      	b.n	80027b8 <HAL_RCC_ClockConfig+0x17c>
 8002682:	687b      	ldr	r3, [r7, #4]
 8002684:	681b      	ldr	r3, [r3, #0]
 8002686:	2202      	movs	r2, #2
 8002688:	4013      	ands	r3, r2
 800268a:	d015      	beq.n	80026b8 <HAL_RCC_ClockConfig+0x7c>
 800268c:	687b      	ldr	r3, [r7, #4]
 800268e:	681b      	ldr	r3, [r3, #0]
 8002690:	2204      	movs	r2, #4
 8002692:	4013      	ands	r3, r2
 8002694:	d006      	beq.n	80026a4 <HAL_RCC_ClockConfig+0x68>
 8002696:	4b4b      	ldr	r3, [pc, #300]	; (80027c4 <HAL_RCC_ClockConfig+0x188>)
 8002698:	685a      	ldr	r2, [r3, #4]
 800269a:	4b4a      	ldr	r3, [pc, #296]	; (80027c4 <HAL_RCC_ClockConfig+0x188>)
 800269c:	21e0      	movs	r1, #224	; 0xe0
 800269e:	00c9      	lsls	r1, r1, #3
 80026a0:	430a      	orrs	r2, r1
 80026a2:	605a      	str	r2, [r3, #4]
 80026a4:	4b47      	ldr	r3, [pc, #284]	; (80027c4 <HAL_RCC_ClockConfig+0x188>)
 80026a6:	685b      	ldr	r3, [r3, #4]
 80026a8:	22f0      	movs	r2, #240	; 0xf0
 80026aa:	4393      	bics	r3, r2
 80026ac:	0019      	movs	r1, r3
 80026ae:	687b      	ldr	r3, [r7, #4]
 80026b0:	689a      	ldr	r2, [r3, #8]
 80026b2:	4b44      	ldr	r3, [pc, #272]	; (80027c4 <HAL_RCC_ClockConfig+0x188>)
 80026b4:	430a      	orrs	r2, r1
 80026b6:	605a      	str	r2, [r3, #4]
 80026b8:	687b      	ldr	r3, [r7, #4]
 80026ba:	681b      	ldr	r3, [r3, #0]
 80026bc:	2201      	movs	r2, #1
 80026be:	4013      	ands	r3, r2
 80026c0:	d040      	beq.n	8002744 <HAL_RCC_ClockConfig+0x108>
 80026c2:	687b      	ldr	r3, [r7, #4]
 80026c4:	685b      	ldr	r3, [r3, #4]
 80026c6:	2b01      	cmp	r3, #1
 80026c8:	d107      	bne.n	80026da <HAL_RCC_ClockConfig+0x9e>
 80026ca:	4b3e      	ldr	r3, [pc, #248]	; (80027c4 <HAL_RCC_ClockConfig+0x188>)
 80026cc:	681a      	ldr	r2, [r3, #0]
 80026ce:	2380      	movs	r3, #128	; 0x80
 80026d0:	029b      	lsls	r3, r3, #10
 80026d2:	4013      	ands	r3, r2
 80026d4:	d114      	bne.n	8002700 <HAL_RCC_ClockConfig+0xc4>
 80026d6:	2301      	movs	r3, #1
 80026d8:	e06e      	b.n	80027b8 <HAL_RCC_ClockConfig+0x17c>
 80026da:	687b      	ldr	r3, [r7, #4]
 80026dc:	685b      	ldr	r3, [r3, #4]
 80026de:	2b02      	cmp	r3, #2
 80026e0:	d107      	bne.n	80026f2 <HAL_RCC_ClockConfig+0xb6>
 80026e2:	4b38      	ldr	r3, [pc, #224]	; (80027c4 <HAL_RCC_ClockConfig+0x188>)
 80026e4:	681a      	ldr	r2, [r3, #0]
 80026e6:	2380      	movs	r3, #128	; 0x80
 80026e8:	049b      	lsls	r3, r3, #18
 80026ea:	4013      	ands	r3, r2
 80026ec:	d108      	bne.n	8002700 <HAL_RCC_ClockConfig+0xc4>
 80026ee:	2301      	movs	r3, #1
 80026f0:	e062      	b.n	80027b8 <HAL_RCC_ClockConfig+0x17c>
 80026f2:	4b34      	ldr	r3, [pc, #208]	; (80027c4 <HAL_RCC_ClockConfig+0x188>)
 80026f4:	681b      	ldr	r3, [r3, #0]
 80026f6:	2202      	movs	r2, #2
 80026f8:	4013      	ands	r3, r2
 80026fa:	d101      	bne.n	8002700 <HAL_RCC_ClockConfig+0xc4>
 80026fc:	2301      	movs	r3, #1
 80026fe:	e05b      	b.n	80027b8 <HAL_RCC_ClockConfig+0x17c>
 8002700:	4b30      	ldr	r3, [pc, #192]	; (80027c4 <HAL_RCC_ClockConfig+0x188>)
 8002702:	685b      	ldr	r3, [r3, #4]
 8002704:	2203      	movs	r2, #3
 8002706:	4393      	bics	r3, r2
 8002708:	0019      	movs	r1, r3
 800270a:	687b      	ldr	r3, [r7, #4]
 800270c:	685a      	ldr	r2, [r3, #4]
 800270e:	4b2d      	ldr	r3, [pc, #180]	; (80027c4 <HAL_RCC_ClockConfig+0x188>)
 8002710:	430a      	orrs	r2, r1
 8002712:	605a      	str	r2, [r3, #4]
 8002714:	f7fe fad8 	bl	8000cc8 <HAL_GetTick>
 8002718:	0003      	movs	r3, r0
 800271a:	60fb      	str	r3, [r7, #12]
 800271c:	e009      	b.n	8002732 <HAL_RCC_ClockConfig+0xf6>
 800271e:	f7fe fad3 	bl	8000cc8 <HAL_GetTick>
 8002722:	0002      	movs	r2, r0
 8002724:	68fb      	ldr	r3, [r7, #12]
 8002726:	1ad3      	subs	r3, r2, r3
 8002728:	4a27      	ldr	r2, [pc, #156]	; (80027c8 <HAL_RCC_ClockConfig+0x18c>)
 800272a:	4293      	cmp	r3, r2
 800272c:	d901      	bls.n	8002732 <HAL_RCC_ClockConfig+0xf6>
 800272e:	2303      	movs	r3, #3
 8002730:	e042      	b.n	80027b8 <HAL_RCC_ClockConfig+0x17c>
 8002732:	4b24      	ldr	r3, [pc, #144]	; (80027c4 <HAL_RCC_ClockConfig+0x188>)
 8002734:	685b      	ldr	r3, [r3, #4]
 8002736:	220c      	movs	r2, #12
 8002738:	401a      	ands	r2, r3
 800273a:	687b      	ldr	r3, [r7, #4]
 800273c:	685b      	ldr	r3, [r3, #4]
 800273e:	009b      	lsls	r3, r3, #2
 8002740:	429a      	cmp	r2, r3
 8002742:	d1ec      	bne.n	800271e <HAL_RCC_ClockConfig+0xe2>
 8002744:	4b1e      	ldr	r3, [pc, #120]	; (80027c0 <HAL_RCC_ClockConfig+0x184>)
 8002746:	681b      	ldr	r3, [r3, #0]
 8002748:	2201      	movs	r2, #1
 800274a:	4013      	ands	r3, r2
 800274c:	683a      	ldr	r2, [r7, #0]
 800274e:	429a      	cmp	r2, r3
 8002750:	d211      	bcs.n	8002776 <HAL_RCC_ClockConfig+0x13a>
 8002752:	4b1b      	ldr	r3, [pc, #108]	; (80027c0 <HAL_RCC_ClockConfig+0x184>)
 8002754:	681b      	ldr	r3, [r3, #0]
 8002756:	2201      	movs	r2, #1
 8002758:	4393      	bics	r3, r2
 800275a:	0019      	movs	r1, r3
 800275c:	4b18      	ldr	r3, [pc, #96]	; (80027c0 <HAL_RCC_ClockConfig+0x184>)
 800275e:	683a      	ldr	r2, [r7, #0]
 8002760:	430a      	orrs	r2, r1
 8002762:	601a      	str	r2, [r3, #0]
 8002764:	4b16      	ldr	r3, [pc, #88]	; (80027c0 <HAL_RCC_ClockConfig+0x184>)
 8002766:	681b      	ldr	r3, [r3, #0]
 8002768:	2201      	movs	r2, #1
 800276a:	4013      	ands	r3, r2
 800276c:	683a      	ldr	r2, [r7, #0]
 800276e:	429a      	cmp	r2, r3
 8002770:	d001      	beq.n	8002776 <HAL_RCC_ClockConfig+0x13a>
 8002772:	2301      	movs	r3, #1
 8002774:	e020      	b.n	80027b8 <HAL_RCC_ClockConfig+0x17c>
 8002776:	687b      	ldr	r3, [r7, #4]
 8002778:	681b      	ldr	r3, [r3, #0]
 800277a:	2204      	movs	r2, #4
 800277c:	4013      	ands	r3, r2
 800277e:	d009      	beq.n	8002794 <HAL_RCC_ClockConfig+0x158>
 8002780:	4b10      	ldr	r3, [pc, #64]	; (80027c4 <HAL_RCC_ClockConfig+0x188>)
 8002782:	685b      	ldr	r3, [r3, #4]
 8002784:	4a11      	ldr	r2, [pc, #68]	; (80027cc <HAL_RCC_ClockConfig+0x190>)
 8002786:	4013      	ands	r3, r2
 8002788:	0019      	movs	r1, r3
 800278a:	687b      	ldr	r3, [r7, #4]
 800278c:	68da      	ldr	r2, [r3, #12]
 800278e:	4b0d      	ldr	r3, [pc, #52]	; (80027c4 <HAL_RCC_ClockConfig+0x188>)
 8002790:	430a      	orrs	r2, r1
 8002792:	605a      	str	r2, [r3, #4]
 8002794:	f000 f820 	bl	80027d8 <HAL_RCC_GetSysClockFreq>
 8002798:	0001      	movs	r1, r0
 800279a:	4b0a      	ldr	r3, [pc, #40]	; (80027c4 <HAL_RCC_ClockConfig+0x188>)
 800279c:	685b      	ldr	r3, [r3, #4]
 800279e:	091b      	lsrs	r3, r3, #4
 80027a0:	220f      	movs	r2, #15
 80027a2:	4013      	ands	r3, r2
 80027a4:	4a0a      	ldr	r2, [pc, #40]	; (80027d0 <HAL_RCC_ClockConfig+0x194>)
 80027a6:	5cd3      	ldrb	r3, [r2, r3]
 80027a8:	000a      	movs	r2, r1
 80027aa:	40da      	lsrs	r2, r3
 80027ac:	4b09      	ldr	r3, [pc, #36]	; (80027d4 <HAL_RCC_ClockConfig+0x198>)
 80027ae:	601a      	str	r2, [r3, #0]
 80027b0:	2000      	movs	r0, #0
 80027b2:	f7fe fa43 	bl	8000c3c <HAL_InitTick>
 80027b6:	2300      	movs	r3, #0
 80027b8:	0018      	movs	r0, r3
 80027ba:	46bd      	mov	sp, r7
 80027bc:	b004      	add	sp, #16
 80027be:	bd80      	pop	{r7, pc}
 80027c0:	40022000 	.word	0x40022000
 80027c4:	40021000 	.word	0x40021000
 80027c8:	00001388 	.word	0x00001388
 80027cc:	fffff8ff 	.word	0xfffff8ff
 80027d0:	08004edc 	.word	0x08004edc
 80027d4:	20000004 	.word	0x20000004

080027d8 <HAL_RCC_GetSysClockFreq>:
 80027d8:	b590      	push	{r4, r7, lr}
 80027da:	b08f      	sub	sp, #60	; 0x3c
 80027dc:	af00      	add	r7, sp, #0
 80027de:	2314      	movs	r3, #20
 80027e0:	18fb      	adds	r3, r7, r3
 80027e2:	4a2b      	ldr	r2, [pc, #172]	; (8002890 <HAL_RCC_GetSysClockFreq+0xb8>)
 80027e4:	ca13      	ldmia	r2!, {r0, r1, r4}
 80027e6:	c313      	stmia	r3!, {r0, r1, r4}
 80027e8:	6812      	ldr	r2, [r2, #0]
 80027ea:	601a      	str	r2, [r3, #0]
 80027ec:	1d3b      	adds	r3, r7, #4
 80027ee:	4a29      	ldr	r2, [pc, #164]	; (8002894 <HAL_RCC_GetSysClockFreq+0xbc>)
 80027f0:	ca13      	ldmia	r2!, {r0, r1, r4}
 80027f2:	c313      	stmia	r3!, {r0, r1, r4}
 80027f4:	6812      	ldr	r2, [r2, #0]
 80027f6:	601a      	str	r2, [r3, #0]
 80027f8:	2300      	movs	r3, #0
 80027fa:	62fb      	str	r3, [r7, #44]	; 0x2c
 80027fc:	2300      	movs	r3, #0
 80027fe:	62bb      	str	r3, [r7, #40]	; 0x28
 8002800:	2300      	movs	r3, #0
 8002802:	637b      	str	r3, [r7, #52]	; 0x34
 8002804:	2300      	movs	r3, #0
 8002806:	627b      	str	r3, [r7, #36]	; 0x24
 8002808:	2300      	movs	r3, #0
 800280a:	633b      	str	r3, [r7, #48]	; 0x30
 800280c:	4b22      	ldr	r3, [pc, #136]	; (8002898 <HAL_RCC_GetSysClockFreq+0xc0>)
 800280e:	685b      	ldr	r3, [r3, #4]
 8002810:	62fb      	str	r3, [r7, #44]	; 0x2c
 8002812:	6afb      	ldr	r3, [r7, #44]	; 0x2c
 8002814:	220c      	movs	r2, #12
 8002816:	4013      	ands	r3, r2
 8002818:	2b04      	cmp	r3, #4
 800281a:	d002      	beq.n	8002822 <HAL_RCC_GetSysClockFreq+0x4a>
 800281c:	2b08      	cmp	r3, #8
 800281e:	d003      	beq.n	8002828 <HAL_RCC_GetSysClockFreq+0x50>
 8002820:	e02d      	b.n	800287e <HAL_RCC_GetSysClockFreq+0xa6>
 8002822:	4b1e      	ldr	r3, [pc, #120]	; (800289c <HAL_RCC_GetSysClockFreq+0xc4>)
 8002824:	633b      	str	r3, [r7, #48]	; 0x30
 8002826:	e02d      	b.n	8002884 <HAL_RCC_GetSysClockFreq+0xac>
 8002828:	6afb      	ldr	r3, [r7, #44]	; 0x2c
 800282a:	0c9b      	lsrs	r3, r3, #18
 800282c:	220f      	movs	r2, #15
 800282e:	4013      	ands	r3, r2
 8002830:	2214      	movs	r2, #20
 8002832:	18ba      	adds	r2, r7, r2
 8002834:	5cd3      	ldrb	r3, [r2, r3]
 8002836:	627b      	str	r3, [r7, #36]	; 0x24
 8002838:	4b17      	ldr	r3, [pc, #92]	; (8002898 <HAL_RCC_GetSysClockFreq+0xc0>)
 800283a:	6adb      	ldr	r3, [r3, #44]	; 0x2c
 800283c:	220f      	movs	r2, #15
 800283e:	4013      	ands	r3, r2
 8002840:	1d3a      	adds	r2, r7, #4
 8002842:	5cd3      	ldrb	r3, [r2, r3]
 8002844:	62bb      	str	r3, [r7, #40]	; 0x28
 8002846:	6afa      	ldr	r2, [r7, #44]	; 0x2c
 8002848:	2380      	movs	r3, #128	; 0x80
 800284a:	025b      	lsls	r3, r3, #9
 800284c:	4013      	ands	r3, r2
 800284e:	d009      	beq.n	8002864 <HAL_RCC_GetSysClockFreq+0x8c>
 8002850:	6ab9      	ldr	r1, [r7, #40]	; 0x28
 8002852:	4812      	ldr	r0, [pc, #72]	; (800289c <HAL_RCC_GetSysClockFreq+0xc4>)
 8002854:	f7fd fc62 	bl	800011c <__udivsi3>
 8002858:	0003      	movs	r3, r0
 800285a:	001a      	movs	r2, r3
 800285c:	6a7b      	ldr	r3, [r7, #36]	; 0x24
 800285e:	4353      	muls	r3, r2
 8002860:	637b      	str	r3, [r7, #52]	; 0x34
 8002862:	e009      	b.n	8002878 <HAL_RCC_GetSysClockFreq+0xa0>
 8002864:	6a79      	ldr	r1, [r7, #36]	; 0x24
 8002866:	000a      	movs	r2, r1
 8002868:	0152      	lsls	r2, r2, #5
 800286a:	1a52      	subs	r2, r2, r1
 800286c:	0193      	lsls	r3, r2, #6
 800286e:	1a9b      	subs	r3, r3, r2
 8002870:	00db      	lsls	r3, r3, #3
 8002872:	185b      	adds	r3, r3, r1
 8002874:	021b      	lsls	r3, r3, #8
 8002876:	637b      	str	r3, [r7, #52]	; 0x34
 8002878:	6b7b      	ldr	r3, [r7, #52]	; 0x34
 800287a:	633b      	str	r3, [r7, #48]	; 0x30
 800287c:	e002      	b.n	8002884 <HAL_RCC_GetSysClockFreq+0xac>
 800287e:	4b07      	ldr	r3, [pc, #28]	; (800289c <HAL_RCC_GetSysClockFreq+0xc4>)
 8002880:	633b      	str	r3, [r7, #48]	; 0x30
 8002882:	46c0      	nop			; (mov r8, r8)
 8002884:	6b3b      	ldr	r3, [r7, #48]	; 0x30
 8002886:	0018      	movs	r0, r3
 8002888:	46bd      	mov	sp, r7
 800288a:	b00f      	add	sp, #60	; 0x3c
 800288c:	bd90      	pop	{r4, r7, pc}
 800288e:	46c0      	nop			; (mov r8, r8)
 8002890:	08004ebc 	.word	0x08004ebc
 8002894:	08004ecc 	.word	0x08004ecc
 8002898:	40021000 	.word	0x40021000
 800289c:	007a1200 	.word	0x007a1200

080028a0 <HAL_RCC_GetHCLKFreq>:
 80028a0:	b580      	push	{r7, lr}
 80028a2:	af00      	add	r7, sp, #0
 80028a4:	4b02      	ldr	r3, [pc, #8]	; (80028b0 <HAL_RCC_GetHCLKFreq+0x10>)
 80028a6:	681b      	ldr	r3, [r3, #0]
 80028a8:	0018      	movs	r0, r3
 80028aa:	46bd      	mov	sp, r7
 80028ac:	bd80      	pop	{r7, pc}
 80028ae:	46c0      	nop			; (mov r8, r8)
 80028b0:	20000004 	.word	0x20000004

080028b4 <HAL_RCC_GetPCLK1Freq>:
 80028b4:	b580      	push	{r7, lr}
 80028b6:	af00      	add	r7, sp, #0
 80028b8:	f7ff fff2 	bl	80028a0 <HAL_RCC_GetHCLKFreq>
 80028bc:	0001      	movs	r1, r0
 80028be:	4b06      	ldr	r3, [pc, #24]	; (80028d8 <HAL_RCC_GetPCLK1Freq+0x24>)
 80028c0:	685b      	ldr	r3, [r3, #4]
 80028c2:	0a1b      	lsrs	r3, r3, #8
 80028c4:	2207      	movs	r2, #7
 80028c6:	4013      	ands	r3, r2
 80028c8:	4a04      	ldr	r2, [pc, #16]	; (80028dc <HAL_RCC_GetPCLK1Freq+0x28>)
 80028ca:	5cd3      	ldrb	r3, [r2, r3]
 80028cc:	40d9      	lsrs	r1, r3
 80028ce:	000b      	movs	r3, r1
 80028d0:	0018      	movs	r0, r3
 80028d2:	46bd      	mov	sp, r7
 80028d4:	bd80      	pop	{r7, pc}
 80028d6:	46c0      	nop			; (mov r8, r8)
 80028d8:	40021000 	.word	0x40021000
 80028dc:	08004eec 	.word	0x08004eec

080028e0 <HAL_TIM_Base_Init>:
 80028e0:	b580      	push	{r7, lr}
 80028e2:	b082      	sub	sp, #8
 80028e4:	af00      	add	r7, sp, #0
 80028e6:	6078      	str	r0, [r7, #4]
 80028e8:	687b      	ldr	r3, [r7, #4]
 80028ea:	2b00      	cmp	r3, #0
 80028ec:	d101      	bne.n	80028f2 <HAL_TIM_Base_Init+0x12>
 80028ee:	2301      	movs	r3, #1
 80028f0:	e042      	b.n	8002978 <HAL_TIM_Base_Init+0x98>
 80028f2:	687b      	ldr	r3, [r7, #4]
 80028f4:	223d      	movs	r2, #61	; 0x3d
 80028f6:	5c9b      	ldrb	r3, [r3, r2]
 80028f8:	b2db      	uxtb	r3, r3
 80028fa:	2b00      	cmp	r3, #0
 80028fc:	d107      	bne.n	800290e <HAL_TIM_Base_Init+0x2e>
 80028fe:	687b      	ldr	r3, [r7, #4]
 8002900:	223c      	movs	r2, #60	; 0x3c
 8002902:	2100      	movs	r1, #0
 8002904:	5499      	strb	r1, [r3, r2]
 8002906:	687b      	ldr	r3, [r7, #4]
 8002908:	0018      	movs	r0, r3
 800290a:	f7fd fff9 	bl	8000900 <HAL_TIM_Base_MspInit>
 800290e:	687b      	ldr	r3, [r7, #4]
 8002910:	223d      	movs	r2, #61	; 0x3d
 8002912:	2102      	movs	r1, #2
 8002914:	5499      	strb	r1, [r3, r2]
 8002916:	687b      	ldr	r3, [r7, #4]
 8002918:	681a      	ldr	r2, [r3, #0]
 800291a:	687b      	ldr	r3, [r7, #4]
 800291c:	3304      	adds	r3, #4
 800291e:	0019      	movs	r1, r3
 8002920:	0010      	movs	r0, r2
 8002922:	f000 fad7 	bl	8002ed4 <TIM_Base_SetConfig>
 8002926:	687b      	ldr	r3, [r7, #4]
 8002928:	2246      	movs	r2, #70	; 0x46
 800292a:	2101      	movs	r1, #1
 800292c:	5499      	strb	r1, [r3, r2]
 800292e:	687b      	ldr	r3, [r7, #4]
 8002930:	223e      	movs	r2, #62	; 0x3e
 8002932:	2101      	movs	r1, #1
 8002934:	5499      	strb	r1, [r3, r2]
 8002936:	687b      	ldr	r3, [r7, #4]
 8002938:	223f      	movs	r2, #63	; 0x3f
 800293a:	2101      	movs	r1, #1
 800293c:	5499      	strb	r1, [r3, r2]
 800293e:	687b      	ldr	r3, [r7, #4]
 8002940:	2240      	movs	r2, #64	; 0x40
 8002942:	2101      	movs	r1, #1
 8002944:	5499      	strb	r1, [r3, r2]
 8002946:	687b      	ldr	r3, [r7, #4]
 8002948:	2241      	movs	r2, #65	; 0x41
 800294a:	2101      	movs	r1, #1
 800294c:	5499      	strb	r1, [r3, r2]
 800294e:	687b      	ldr	r3, [r7, #4]
 8002950:	2242      	movs	r2, #66	; 0x42
 8002952:	2101      	movs	r1, #1
 8002954:	5499      	strb	r1, [r3, r2]
 8002956:	687b      	ldr	r3, [r7, #4]
 8002958:	2243      	movs	r2, #67	; 0x43
 800295a:	2101      	movs	r1, #1
 800295c:	5499      	strb	r1, [r3, r2]
 800295e:	687b      	ldr	r3, [r7, #4]
 8002960:	2244      	movs	r2, #68	; 0x44
 8002962:	2101      	movs	r1, #1
 8002964:	5499      	strb	r1, [r3, r2]
 8002966:	687b      	ldr	r3, [r7, #4]
 8002968:	2245      	movs	r2, #69	; 0x45
 800296a:	2101      	movs	r1, #1
 800296c:	5499      	strb	r1, [r3, r2]
 800296e:	687b      	ldr	r3, [r7, #4]
 8002970:	223d      	movs	r2, #61	; 0x3d
 8002972:	2101      	movs	r1, #1
 8002974:	5499      	strb	r1, [r3, r2]
 8002976:	2300      	movs	r3, #0
 8002978:	0018      	movs	r0, r3
 800297a:	46bd      	mov	sp, r7
 800297c:	b002      	add	sp, #8
 800297e:	bd80      	pop	{r7, pc}

08002980 <HAL_TIM_PWM_Init>:
 8002980:	b580      	push	{r7, lr}
 8002982:	b082      	sub	sp, #8
 8002984:	af00      	add	r7, sp, #0
 8002986:	6078      	str	r0, [r7, #4]
 8002988:	687b      	ldr	r3, [r7, #4]
 800298a:	2b00      	cmp	r3, #0
 800298c:	d101      	bne.n	8002992 <HAL_TIM_PWM_Init+0x12>
 800298e:	2301      	movs	r3, #1
 8002990:	e042      	b.n	8002a18 <HAL_TIM_PWM_Init+0x98>
 8002992:	687b      	ldr	r3, [r7, #4]
 8002994:	223d      	movs	r2, #61	; 0x3d
 8002996:	5c9b      	ldrb	r3, [r3, r2]
 8002998:	b2db      	uxtb	r3, r3
 800299a:	2b00      	cmp	r3, #0
 800299c:	d107      	bne.n	80029ae <HAL_TIM_PWM_Init+0x2e>
 800299e:	687b      	ldr	r3, [r7, #4]
 80029a0:	223c      	movs	r2, #60	; 0x3c
 80029a2:	2100      	movs	r1, #0
 80029a4:	5499      	strb	r1, [r3, r2]
 80029a6:	687b      	ldr	r3, [r7, #4]
 80029a8:	0018      	movs	r0, r3
 80029aa:	f000 f839 	bl	8002a20 <HAL_TIM_PWM_MspInit>
 80029ae:	687b      	ldr	r3, [r7, #4]
 80029b0:	223d      	movs	r2, #61	; 0x3d
 80029b2:	2102      	movs	r1, #2
 80029b4:	5499      	strb	r1, [r3, r2]
 80029b6:	687b      	ldr	r3, [r7, #4]
 80029b8:	681a      	ldr	r2, [r3, #0]
 80029ba:	687b      	ldr	r3, [r7, #4]
 80029bc:	3304      	adds	r3, #4
 80029be:	0019      	movs	r1, r3
 80029c0:	0010      	movs	r0, r2
 80029c2:	f000 fa87 	bl	8002ed4 <TIM_Base_SetConfig>
 80029c6:	687b      	ldr	r3, [r7, #4]
 80029c8:	2246      	movs	r2, #70	; 0x46
 80029ca:	2101      	movs	r1, #1
 80029cc:	5499      	strb	r1, [r3, r2]
 80029ce:	687b      	ldr	r3, [r7, #4]
 80029d0:	223e      	movs	r2, #62	; 0x3e
 80029d2:	2101      	movs	r1, #1
 80029d4:	5499      	strb	r1, [r3, r2]
 80029d6:	687b      	ldr	r3, [r7, #4]
 80029d8:	223f      	movs	r2, #63	; 0x3f
 80029da:	2101      	movs	r1, #1
 80029dc:	5499      	strb	r1, [r3, r2]
 80029de:	687b      	ldr	r3, [r7, #4]
 80029e0:	2240      	movs	r2, #64	; 0x40
 80029e2:	2101      	movs	r1, #1
 80029e4:	5499      	strb	r1, [r3, r2]
 80029e6:	687b      	ldr	r3, [r7, #4]
 80029e8:	2241      	movs	r2, #65	; 0x41
 80029ea:	2101      	movs	r1, #1
 80029ec:	5499      	strb	r1, [r3, r2]
 80029ee:	687b      	ldr	r3, [r7, #4]
 80029f0:	2242      	movs	r2, #66	; 0x42
 80029f2:	2101      	movs	r1, #1
 80029f4:	5499      	strb	r1, [r3, r2]
 80029f6:	687b      	ldr	r3, [r7, #4]
 80029f8:	2243      	movs	r2, #67	; 0x43
 80029fa:	2101      	movs	r1, #1
 80029fc:	5499      	strb	r1, [r3, r2]
 80029fe:	687b      	ldr	r3, [r7, #4]
 8002a00:	2244      	movs	r2, #68	; 0x44
 8002a02:	2101      	movs	r1, #1
 8002a04:	5499      	strb	r1, [r3, r2]
 8002a06:	687b      	ldr	r3, [r7, #4]
 8002a08:	2245      	movs	r2, #69	; 0x45
 8002a0a:	2101      	movs	r1, #1
 8002a0c:	5499      	strb	r1, [r3, r2]
 8002a0e:	687b      	ldr	r3, [r7, #4]
 8002a10:	223d      	movs	r2, #61	; 0x3d
 8002a12:	2101      	movs	r1, #1
 8002a14:	5499      	strb	r1, [r3, r2]
 8002a16:	2300      	movs	r3, #0
 8002a18:	0018      	movs	r0, r3
 8002a1a:	46bd      	mov	sp, r7
 8002a1c:	b002      	add	sp, #8
 8002a1e:	bd80      	pop	{r7, pc}

08002a20 <HAL_TIM_PWM_MspInit>:
 8002a20:	b580      	push	{r7, lr}
 8002a22:	b082      	sub	sp, #8
 8002a24:	af00      	add	r7, sp, #0
 8002a26:	6078      	str	r0, [r7, #4]
 8002a28:	46c0      	nop			; (mov r8, r8)
 8002a2a:	46bd      	mov	sp, r7
 8002a2c:	b002      	add	sp, #8
 8002a2e:	bd80      	pop	{r7, pc}

08002a30 <HAL_TIM_PWM_Start>:
 8002a30:	b580      	push	{r7, lr}
 8002a32:	b084      	sub	sp, #16
 8002a34:	af00      	add	r7, sp, #0
 8002a36:	6078      	str	r0, [r7, #4]
 8002a38:	6039      	str	r1, [r7, #0]
 8002a3a:	683b      	ldr	r3, [r7, #0]
 8002a3c:	2b00      	cmp	r3, #0
 8002a3e:	d108      	bne.n	8002a52 <HAL_TIM_PWM_Start+0x22>
 8002a40:	687b      	ldr	r3, [r7, #4]
 8002a42:	223e      	movs	r2, #62	; 0x3e
 8002a44:	5c9b      	ldrb	r3, [r3, r2]
 8002a46:	b2db      	uxtb	r3, r3
 8002a48:	3b01      	subs	r3, #1
 8002a4a:	1e5a      	subs	r2, r3, #1
 8002a4c:	4193      	sbcs	r3, r2
 8002a4e:	b2db      	uxtb	r3, r3
 8002a50:	e01f      	b.n	8002a92 <HAL_TIM_PWM_Start+0x62>
 8002a52:	683b      	ldr	r3, [r7, #0]
 8002a54:	2b04      	cmp	r3, #4
 8002a56:	d108      	bne.n	8002a6a <HAL_TIM_PWM_Start+0x3a>
 8002a58:	687b      	ldr	r3, [r7, #4]
 8002a5a:	223f      	movs	r2, #63	; 0x3f
 8002a5c:	5c9b      	ldrb	r3, [r3, r2]
 8002a5e:	b2db      	uxtb	r3, r3
 8002a60:	3b01      	subs	r3, #1
 8002a62:	1e5a      	subs	r2, r3, #1
 8002a64:	4193      	sbcs	r3, r2
 8002a66:	b2db      	uxtb	r3, r3
 8002a68:	e013      	b.n	8002a92 <HAL_TIM_PWM_Start+0x62>
 8002a6a:	683b      	ldr	r3, [r7, #0]
 8002a6c:	2b08      	cmp	r3, #8
 8002a6e:	d108      	bne.n	8002a82 <HAL_TIM_PWM_Start+0x52>
 8002a70:	687b      	ldr	r3, [r7, #4]
 8002a72:	2240      	movs	r2, #64	; 0x40
 8002a74:	5c9b      	ldrb	r3, [r3, r2]
 8002a76:	b2db      	uxtb	r3, r3
 8002a78:	3b01      	subs	r3, #1
 8002a7a:	1e5a      	subs	r2, r3, #1
 8002a7c:	4193      	sbcs	r3, r2
 8002a7e:	b2db      	uxtb	r3, r3
 8002a80:	e007      	b.n	8002a92 <HAL_TIM_PWM_Start+0x62>
 8002a82:	687b      	ldr	r3, [r7, #4]
 8002a84:	2241      	movs	r2, #65	; 0x41
 8002a86:	5c9b      	ldrb	r3, [r3, r2]
 8002a88:	b2db      	uxtb	r3, r3
 8002a8a:	3b01      	subs	r3, #1
 8002a8c:	1e5a      	subs	r2, r3, #1
 8002a8e:	4193      	sbcs	r3, r2
 8002a90:	b2db      	uxtb	r3, r3
 8002a92:	2b00      	cmp	r3, #0
 8002a94:	d001      	beq.n	8002a9a <HAL_TIM_PWM_Start+0x6a>
 8002a96:	2301      	movs	r3, #1
 8002a98:	e074      	b.n	8002b84 <HAL_TIM_PWM_Start+0x154>
 8002a9a:	683b      	ldr	r3, [r7, #0]
 8002a9c:	2b00      	cmp	r3, #0
 8002a9e:	d104      	bne.n	8002aaa <HAL_TIM_PWM_Start+0x7a>
 8002aa0:	687b      	ldr	r3, [r7, #4]
 8002aa2:	223e      	movs	r2, #62	; 0x3e
 8002aa4:	2102      	movs	r1, #2
 8002aa6:	5499      	strb	r1, [r3, r2]
 8002aa8:	e013      	b.n	8002ad2 <HAL_TIM_PWM_Start+0xa2>
 8002aaa:	683b      	ldr	r3, [r7, #0]
 8002aac:	2b04      	cmp	r3, #4
 8002aae:	d104      	bne.n	8002aba <HAL_TIM_PWM_Start+0x8a>
 8002ab0:	687b      	ldr	r3, [r7, #4]
 8002ab2:	223f      	movs	r2, #63	; 0x3f
 8002ab4:	2102      	movs	r1, #2
 8002ab6:	5499      	strb	r1, [r3, r2]
 8002ab8:	e00b      	b.n	8002ad2 <HAL_TIM_PWM_Start+0xa2>
 8002aba:	683b      	ldr	r3, [r7, #0]
 8002abc:	2b08      	cmp	r3, #8
 8002abe:	d104      	bne.n	8002aca <HAL_TIM_PWM_Start+0x9a>
 8002ac0:	687b      	ldr	r3, [r7, #4]
 8002ac2:	2240      	movs	r2, #64	; 0x40
 8002ac4:	2102      	movs	r1, #2
 8002ac6:	5499      	strb	r1, [r3, r2]
 8002ac8:	e003      	b.n	8002ad2 <HAL_TIM_PWM_Start+0xa2>
 8002aca:	687b      	ldr	r3, [r7, #4]
 8002acc:	2241      	movs	r2, #65	; 0x41
 8002ace:	2102      	movs	r1, #2
 8002ad0:	5499      	strb	r1, [r3, r2]
 8002ad2:	687b      	ldr	r3, [r7, #4]
 8002ad4:	681b      	ldr	r3, [r3, #0]
 8002ad6:	6839      	ldr	r1, [r7, #0]
 8002ad8:	2201      	movs	r2, #1
 8002ada:	0018      	movs	r0, r3
 8002adc:	f000 fd10 	bl	8003500 <TIM_CCxChannelCmd>
 8002ae0:	687b      	ldr	r3, [r7, #4]
 8002ae2:	681b      	ldr	r3, [r3, #0]
 8002ae4:	4a29      	ldr	r2, [pc, #164]	; (8002b8c <HAL_TIM_PWM_Start+0x15c>)
 8002ae6:	4293      	cmp	r3, r2
 8002ae8:	d00e      	beq.n	8002b08 <HAL_TIM_PWM_Start+0xd8>
 8002aea:	687b      	ldr	r3, [r7, #4]
 8002aec:	681b      	ldr	r3, [r3, #0]
 8002aee:	4a28      	ldr	r2, [pc, #160]	; (8002b90 <HAL_TIM_PWM_Start+0x160>)
 8002af0:	4293      	cmp	r3, r2
 8002af2:	d009      	beq.n	8002b08 <HAL_TIM_PWM_Start+0xd8>
 8002af4:	687b      	ldr	r3, [r7, #4]
 8002af6:	681b      	ldr	r3, [r3, #0]
 8002af8:	4a26      	ldr	r2, [pc, #152]	; (8002b94 <HAL_TIM_PWM_Start+0x164>)
 8002afa:	4293      	cmp	r3, r2
 8002afc:	d004      	beq.n	8002b08 <HAL_TIM_PWM_Start+0xd8>
 8002afe:	687b      	ldr	r3, [r7, #4]
 8002b00:	681b      	ldr	r3, [r3, #0]
 8002b02:	4a25      	ldr	r2, [pc, #148]	; (8002b98 <HAL_TIM_PWM_Start+0x168>)
 8002b04:	4293      	cmp	r3, r2
 8002b06:	d101      	bne.n	8002b0c <HAL_TIM_PWM_Start+0xdc>
 8002b08:	2301      	movs	r3, #1
 8002b0a:	e000      	b.n	8002b0e <HAL_TIM_PWM_Start+0xde>
 8002b0c:	2300      	movs	r3, #0
 8002b0e:	2b00      	cmp	r3, #0
 8002b10:	d008      	beq.n	8002b24 <HAL_TIM_PWM_Start+0xf4>
 8002b12:	687b      	ldr	r3, [r7, #4]
 8002b14:	681b      	ldr	r3, [r3, #0]
 8002b16:	6c5a      	ldr	r2, [r3, #68]	; 0x44
 8002b18:	687b      	ldr	r3, [r7, #4]
 8002b1a:	681b      	ldr	r3, [r3, #0]
 8002b1c:	2180      	movs	r1, #128	; 0x80
 8002b1e:	0209      	lsls	r1, r1, #8
 8002b20:	430a      	orrs	r2, r1
 8002b22:	645a      	str	r2, [r3, #68]	; 0x44
 8002b24:	687b      	ldr	r3, [r7, #4]
 8002b26:	681b      	ldr	r3, [r3, #0]
 8002b28:	4a18      	ldr	r2, [pc, #96]	; (8002b8c <HAL_TIM_PWM_Start+0x15c>)
 8002b2a:	4293      	cmp	r3, r2
 8002b2c:	d00f      	beq.n	8002b4e <HAL_TIM_PWM_Start+0x11e>
 8002b2e:	687b      	ldr	r3, [r7, #4]
 8002b30:	681a      	ldr	r2, [r3, #0]
 8002b32:	2380      	movs	r3, #128	; 0x80
 8002b34:	05db      	lsls	r3, r3, #23
 8002b36:	429a      	cmp	r2, r3
 8002b38:	d009      	beq.n	8002b4e <HAL_TIM_PWM_Start+0x11e>
 8002b3a:	687b      	ldr	r3, [r7, #4]
 8002b3c:	681b      	ldr	r3, [r3, #0]
 8002b3e:	4a17      	ldr	r2, [pc, #92]	; (8002b9c <HAL_TIM_PWM_Start+0x16c>)
 8002b40:	4293      	cmp	r3, r2
 8002b42:	d004      	beq.n	8002b4e <HAL_TIM_PWM_Start+0x11e>
 8002b44:	687b      	ldr	r3, [r7, #4]
 8002b46:	681b      	ldr	r3, [r3, #0]
 8002b48:	4a11      	ldr	r2, [pc, #68]	; (8002b90 <HAL_TIM_PWM_Start+0x160>)
 8002b4a:	4293      	cmp	r3, r2
 8002b4c:	d111      	bne.n	8002b72 <HAL_TIM_PWM_Start+0x142>
 8002b4e:	687b      	ldr	r3, [r7, #4]
 8002b50:	681b      	ldr	r3, [r3, #0]
 8002b52:	689b      	ldr	r3, [r3, #8]
 8002b54:	2207      	movs	r2, #7
 8002b56:	4013      	ands	r3, r2
 8002b58:	60fb      	str	r3, [r7, #12]
 8002b5a:	68fb      	ldr	r3, [r7, #12]
 8002b5c:	2b06      	cmp	r3, #6
 8002b5e:	d010      	beq.n	8002b82 <HAL_TIM_PWM_Start+0x152>
 8002b60:	687b      	ldr	r3, [r7, #4]
 8002b62:	681b      	ldr	r3, [r3, #0]
 8002b64:	681a      	ldr	r2, [r3, #0]
 8002b66:	687b      	ldr	r3, [r7, #4]
 8002b68:	681b      	ldr	r3, [r3, #0]
 8002b6a:	2101      	movs	r1, #1
 8002b6c:	430a      	orrs	r2, r1
 8002b6e:	601a      	str	r2, [r3, #0]
 8002b70:	e007      	b.n	8002b82 <HAL_TIM_PWM_Start+0x152>
 8002b72:	687b      	ldr	r3, [r7, #4]
 8002b74:	681b      	ldr	r3, [r3, #0]
 8002b76:	681a      	ldr	r2, [r3, #0]
 8002b78:	687b      	ldr	r3, [r7, #4]
 8002b7a:	681b      	ldr	r3, [r3, #0]
 8002b7c:	2101      	movs	r1, #1
 8002b7e:	430a      	orrs	r2, r1
 8002b80:	601a      	str	r2, [r3, #0]
 8002b82:	2300      	movs	r3, #0
 8002b84:	0018      	movs	r0, r3
 8002b86:	46bd      	mov	sp, r7
 8002b88:	b004      	add	sp, #16
 8002b8a:	bd80      	pop	{r7, pc}
 8002b8c:	40012c00 	.word	0x40012c00
 8002b90:	40014000 	.word	0x40014000
 8002b94:	40014400 	.word	0x40014400
 8002b98:	40014800 	.word	0x40014800
 8002b9c:	40000400 	.word	0x40000400

08002ba0 <HAL_TIM_PWM_ConfigChannel>:
 8002ba0:	b580      	push	{r7, lr}
 8002ba2:	b086      	sub	sp, #24
 8002ba4:	af00      	add	r7, sp, #0
 8002ba6:	60f8      	str	r0, [r7, #12]
 8002ba8:	60b9      	str	r1, [r7, #8]
 8002baa:	607a      	str	r2, [r7, #4]
 8002bac:	2317      	movs	r3, #23
 8002bae:	18fb      	adds	r3, r7, r3
 8002bb0:	2200      	movs	r2, #0
 8002bb2:	701a      	strb	r2, [r3, #0]
 8002bb4:	68fb      	ldr	r3, [r7, #12]
 8002bb6:	223c      	movs	r2, #60	; 0x3c
 8002bb8:	5c9b      	ldrb	r3, [r3, r2]
 8002bba:	2b01      	cmp	r3, #1
 8002bbc:	d101      	bne.n	8002bc2 <HAL_TIM_PWM_ConfigChannel+0x22>
 8002bbe:	2302      	movs	r3, #2
 8002bc0:	e0ad      	b.n	8002d1e <HAL_TIM_PWM_ConfigChannel+0x17e>
 8002bc2:	68fb      	ldr	r3, [r7, #12]
 8002bc4:	223c      	movs	r2, #60	; 0x3c
 8002bc6:	2101      	movs	r1, #1
 8002bc8:	5499      	strb	r1, [r3, r2]
 8002bca:	687b      	ldr	r3, [r7, #4]
 8002bcc:	2b0c      	cmp	r3, #12
 8002bce:	d100      	bne.n	8002bd2 <HAL_TIM_PWM_ConfigChannel+0x32>
 8002bd0:	e076      	b.n	8002cc0 <HAL_TIM_PWM_ConfigChannel+0x120>
 8002bd2:	687b      	ldr	r3, [r7, #4]
 8002bd4:	2b0c      	cmp	r3, #12
 8002bd6:	d900      	bls.n	8002bda <HAL_TIM_PWM_ConfigChannel+0x3a>
 8002bd8:	e095      	b.n	8002d06 <HAL_TIM_PWM_ConfigChannel+0x166>
 8002bda:	687b      	ldr	r3, [r7, #4]
 8002bdc:	2b08      	cmp	r3, #8
 8002bde:	d04e      	beq.n	8002c7e <HAL_TIM_PWM_ConfigChannel+0xde>
 8002be0:	687b      	ldr	r3, [r7, #4]
 8002be2:	2b08      	cmp	r3, #8
 8002be4:	d900      	bls.n	8002be8 <HAL_TIM_PWM_ConfigChannel+0x48>
 8002be6:	e08e      	b.n	8002d06 <HAL_TIM_PWM_ConfigChannel+0x166>
 8002be8:	687b      	ldr	r3, [r7, #4]
 8002bea:	2b00      	cmp	r3, #0
 8002bec:	d003      	beq.n	8002bf6 <HAL_TIM_PWM_ConfigChannel+0x56>
 8002bee:	687b      	ldr	r3, [r7, #4]
 8002bf0:	2b04      	cmp	r3, #4
 8002bf2:	d021      	beq.n	8002c38 <HAL_TIM_PWM_ConfigChannel+0x98>
 8002bf4:	e087      	b.n	8002d06 <HAL_TIM_PWM_ConfigChannel+0x166>
 8002bf6:	68fb      	ldr	r3, [r7, #12]
 8002bf8:	681b      	ldr	r3, [r3, #0]
 8002bfa:	68ba      	ldr	r2, [r7, #8]
 8002bfc:	0011      	movs	r1, r2
 8002bfe:	0018      	movs	r0, r3
 8002c00:	f000 f9e8 	bl	8002fd4 <TIM_OC1_SetConfig>
 8002c04:	68fb      	ldr	r3, [r7, #12]
 8002c06:	681b      	ldr	r3, [r3, #0]
 8002c08:	699a      	ldr	r2, [r3, #24]
 8002c0a:	68fb      	ldr	r3, [r7, #12]
 8002c0c:	681b      	ldr	r3, [r3, #0]
 8002c0e:	2108      	movs	r1, #8
 8002c10:	430a      	orrs	r2, r1
 8002c12:	619a      	str	r2, [r3, #24]
 8002c14:	68fb      	ldr	r3, [r7, #12]
 8002c16:	681b      	ldr	r3, [r3, #0]
 8002c18:	699a      	ldr	r2, [r3, #24]
 8002c1a:	68fb      	ldr	r3, [r7, #12]
 8002c1c:	681b      	ldr	r3, [r3, #0]
 8002c1e:	2104      	movs	r1, #4
 8002c20:	438a      	bics	r2, r1
 8002c22:	619a      	str	r2, [r3, #24]
 8002c24:	68fb      	ldr	r3, [r7, #12]
 8002c26:	681b      	ldr	r3, [r3, #0]
 8002c28:	6999      	ldr	r1, [r3, #24]
 8002c2a:	68bb      	ldr	r3, [r7, #8]
 8002c2c:	691a      	ldr	r2, [r3, #16]
 8002c2e:	68fb      	ldr	r3, [r7, #12]
 8002c30:	681b      	ldr	r3, [r3, #0]
 8002c32:	430a      	orrs	r2, r1
 8002c34:	619a      	str	r2, [r3, #24]
 8002c36:	e06b      	b.n	8002d10 <HAL_TIM_PWM_ConfigChannel+0x170>
 8002c38:	68fb      	ldr	r3, [r7, #12]
 8002c3a:	681b      	ldr	r3, [r3, #0]
 8002c3c:	68ba      	ldr	r2, [r7, #8]
 8002c3e:	0011      	movs	r1, r2
 8002c40:	0018      	movs	r0, r3
 8002c42:	f000 fa4f 	bl	80030e4 <TIM_OC2_SetConfig>
 8002c46:	68fb      	ldr	r3, [r7, #12]
 8002c48:	681b      	ldr	r3, [r3, #0]
 8002c4a:	699a      	ldr	r2, [r3, #24]
 8002c4c:	68fb      	ldr	r3, [r7, #12]
 8002c4e:	681b      	ldr	r3, [r3, #0]
 8002c50:	2180      	movs	r1, #128	; 0x80
 8002c52:	0109      	lsls	r1, r1, #4
 8002c54:	430a      	orrs	r2, r1
 8002c56:	619a      	str	r2, [r3, #24]
 8002c58:	68fb      	ldr	r3, [r7, #12]
 8002c5a:	681b      	ldr	r3, [r3, #0]
 8002c5c:	699a      	ldr	r2, [r3, #24]
 8002c5e:	68fb      	ldr	r3, [r7, #12]
 8002c60:	681b      	ldr	r3, [r3, #0]
 8002c62:	4931      	ldr	r1, [pc, #196]	; (8002d28 <HAL_TIM_PWM_ConfigChannel+0x188>)
 8002c64:	400a      	ands	r2, r1
 8002c66:	619a      	str	r2, [r3, #24]
 8002c68:	68fb      	ldr	r3, [r7, #12]
 8002c6a:	681b      	ldr	r3, [r3, #0]
 8002c6c:	6999      	ldr	r1, [r3, #24]
 8002c6e:	68bb      	ldr	r3, [r7, #8]
 8002c70:	691b      	ldr	r3, [r3, #16]
 8002c72:	021a      	lsls	r2, r3, #8
 8002c74:	68fb      	ldr	r3, [r7, #12]
 8002c76:	681b      	ldr	r3, [r3, #0]
 8002c78:	430a      	orrs	r2, r1
 8002c7a:	619a      	str	r2, [r3, #24]
 8002c7c:	e048      	b.n	8002d10 <HAL_TIM_PWM_ConfigChannel+0x170>
 8002c7e:	68fb      	ldr	r3, [r7, #12]
 8002c80:	681b      	ldr	r3, [r3, #0]
 8002c82:	68ba      	ldr	r2, [r7, #8]
 8002c84:	0011      	movs	r1, r2
 8002c86:	0018      	movs	r0, r3
 8002c88:	f000 fab0 	bl	80031ec <TIM_OC3_SetConfig>
 8002c8c:	68fb      	ldr	r3, [r7, #12]
 8002c8e:	681b      	ldr	r3, [r3, #0]
 8002c90:	69da      	ldr	r2, [r3, #28]
 8002c92:	68fb      	ldr	r3, [r7, #12]
 8002c94:	681b      	ldr	r3, [r3, #0]
 8002c96:	2108      	movs	r1, #8
 8002c98:	430a      	orrs	r2, r1
 8002c9a:	61da      	str	r2, [r3, #28]
 8002c9c:	68fb      	ldr	r3, [r7, #12]
 8002c9e:	681b      	ldr	r3, [r3, #0]
 8002ca0:	69da      	ldr	r2, [r3, #28]
 8002ca2:	68fb      	ldr	r3, [r7, #12]
 8002ca4:	681b      	ldr	r3, [r3, #0]
 8002ca6:	2104      	movs	r1, #4
 8002ca8:	438a      	bics	r2, r1
 8002caa:	61da      	str	r2, [r3, #28]
 8002cac:	68fb      	ldr	r3, [r7, #12]
 8002cae:	681b      	ldr	r3, [r3, #0]
 8002cb0:	69d9      	ldr	r1, [r3, #28]
 8002cb2:	68bb      	ldr	r3, [r7, #8]
 8002cb4:	691a      	ldr	r2, [r3, #16]
 8002cb6:	68fb      	ldr	r3, [r7, #12]
 8002cb8:	681b      	ldr	r3, [r3, #0]
 8002cba:	430a      	orrs	r2, r1
 8002cbc:	61da      	str	r2, [r3, #28]
 8002cbe:	e027      	b.n	8002d10 <HAL_TIM_PWM_ConfigChannel+0x170>
 8002cc0:	68fb      	ldr	r3, [r7, #12]
 8002cc2:	681b      	ldr	r3, [r3, #0]
 8002cc4:	68ba      	ldr	r2, [r7, #8]
 8002cc6:	0011      	movs	r1, r2
 8002cc8:	0018      	movs	r0, r3
 8002cca:	f000 fb15 	bl	80032f8 <TIM_OC4_SetConfig>
 8002cce:	68fb      	ldr	r3, [r7, #12]
 8002cd0:	681b      	ldr	r3, [r3, #0]
 8002cd2:	69da      	ldr	r2, [r3, #28]
 8002cd4:	68fb      	ldr	r3, [r7, #12]
 8002cd6:	681b      	ldr	r3, [r3, #0]
 8002cd8:	2180      	movs	r1, #128	; 0x80
 8002cda:	0109      	lsls	r1, r1, #4
 8002cdc:	430a      	orrs	r2, r1
 8002cde:	61da      	str	r2, [r3, #28]
 8002ce0:	68fb      	ldr	r3, [r7, #12]
 8002ce2:	681b      	ldr	r3, [r3, #0]
 8002ce4:	69da      	ldr	r2, [r3, #28]
 8002ce6:	68fb      	ldr	r3, [r7, #12]
 8002ce8:	681b      	ldr	r3, [r3, #0]
 8002cea:	490f      	ldr	r1, [pc, #60]	; (8002d28 <HAL_TIM_PWM_ConfigChannel+0x188>)
 8002cec:	400a      	ands	r2, r1
 8002cee:	61da      	str	r2, [r3, #28]
 8002cf0:	68fb      	ldr	r3, [r7, #12]
 8002cf2:	681b      	ldr	r3, [r3, #0]
 8002cf4:	69d9      	ldr	r1, [r3, #28]
 8002cf6:	68bb      	ldr	r3, [r7, #8]
 8002cf8:	691b      	ldr	r3, [r3, #16]
 8002cfa:	021a      	lsls	r2, r3, #8
 8002cfc:	68fb      	ldr	r3, [r7, #12]
 8002cfe:	681b      	ldr	r3, [r3, #0]
 8002d00:	430a      	orrs	r2, r1
 8002d02:	61da      	str	r2, [r3, #28]
 8002d04:	e004      	b.n	8002d10 <HAL_TIM_PWM_ConfigChannel+0x170>
 8002d06:	2317      	movs	r3, #23
 8002d08:	18fb      	adds	r3, r7, r3
 8002d0a:	2201      	movs	r2, #1
 8002d0c:	701a      	strb	r2, [r3, #0]
 8002d0e:	46c0      	nop			; (mov r8, r8)
 8002d10:	68fb      	ldr	r3, [r7, #12]
 8002d12:	223c      	movs	r2, #60	; 0x3c
 8002d14:	2100      	movs	r1, #0
 8002d16:	5499      	strb	r1, [r3, r2]
 8002d18:	2317      	movs	r3, #23
 8002d1a:	18fb      	adds	r3, r7, r3
 8002d1c:	781b      	ldrb	r3, [r3, #0]
 8002d1e:	0018      	movs	r0, r3
 8002d20:	46bd      	mov	sp, r7
 8002d22:	b006      	add	sp, #24
 8002d24:	bd80      	pop	{r7, pc}
 8002d26:	46c0      	nop			; (mov r8, r8)
 8002d28:	fffffbff 	.word	0xfffffbff

08002d2c <HAL_TIM_ConfigClockSource>:
 8002d2c:	b580      	push	{r7, lr}
 8002d2e:	b084      	sub	sp, #16
 8002d30:	af00      	add	r7, sp, #0
 8002d32:	6078      	str	r0, [r7, #4]
 8002d34:	6039      	str	r1, [r7, #0]
 8002d36:	230f      	movs	r3, #15
 8002d38:	18fb      	adds	r3, r7, r3
 8002d3a:	2200      	movs	r2, #0
 8002d3c:	701a      	strb	r2, [r3, #0]
 8002d3e:	687b      	ldr	r3, [r7, #4]
 8002d40:	223c      	movs	r2, #60	; 0x3c
 8002d42:	5c9b      	ldrb	r3, [r3, r2]
 8002d44:	2b01      	cmp	r3, #1
 8002d46:	d101      	bne.n	8002d4c <HAL_TIM_ConfigClockSource+0x20>
 8002d48:	2302      	movs	r3, #2
 8002d4a:	e0bc      	b.n	8002ec6 <HAL_TIM_ConfigClockSource+0x19a>
 8002d4c:	687b      	ldr	r3, [r7, #4]
 8002d4e:	223c      	movs	r2, #60	; 0x3c
 8002d50:	2101      	movs	r1, #1
 8002d52:	5499      	strb	r1, [r3, r2]
 8002d54:	687b      	ldr	r3, [r7, #4]
 8002d56:	223d      	movs	r2, #61	; 0x3d
 8002d58:	2102      	movs	r1, #2
 8002d5a:	5499      	strb	r1, [r3, r2]
 8002d5c:	687b      	ldr	r3, [r7, #4]
 8002d5e:	681b      	ldr	r3, [r3, #0]
 8002d60:	689b      	ldr	r3, [r3, #8]
 8002d62:	60bb      	str	r3, [r7, #8]
 8002d64:	68bb      	ldr	r3, [r7, #8]
 8002d66:	2277      	movs	r2, #119	; 0x77
 8002d68:	4393      	bics	r3, r2
 8002d6a:	60bb      	str	r3, [r7, #8]
 8002d6c:	68bb      	ldr	r3, [r7, #8]
 8002d6e:	4a58      	ldr	r2, [pc, #352]	; (8002ed0 <HAL_TIM_ConfigClockSource+0x1a4>)
 8002d70:	4013      	ands	r3, r2
 8002d72:	60bb      	str	r3, [r7, #8]
 8002d74:	687b      	ldr	r3, [r7, #4]
 8002d76:	681b      	ldr	r3, [r3, #0]
 8002d78:	68ba      	ldr	r2, [r7, #8]
 8002d7a:	609a      	str	r2, [r3, #8]
 8002d7c:	683b      	ldr	r3, [r7, #0]
 8002d7e:	681b      	ldr	r3, [r3, #0]
 8002d80:	2280      	movs	r2, #128	; 0x80
 8002d82:	0192      	lsls	r2, r2, #6
 8002d84:	4293      	cmp	r3, r2
 8002d86:	d040      	beq.n	8002e0a <HAL_TIM_ConfigClockSource+0xde>
 8002d88:	2280      	movs	r2, #128	; 0x80
 8002d8a:	0192      	lsls	r2, r2, #6
 8002d8c:	4293      	cmp	r3, r2
 8002d8e:	d900      	bls.n	8002d92 <HAL_TIM_ConfigClockSource+0x66>
 8002d90:	e088      	b.n	8002ea4 <HAL_TIM_ConfigClockSource+0x178>
 8002d92:	2280      	movs	r2, #128	; 0x80
 8002d94:	0152      	lsls	r2, r2, #5
 8002d96:	4293      	cmp	r3, r2
 8002d98:	d100      	bne.n	8002d9c <HAL_TIM_ConfigClockSource+0x70>
 8002d9a:	e088      	b.n	8002eae <HAL_TIM_ConfigClockSource+0x182>
 8002d9c:	2280      	movs	r2, #128	; 0x80
 8002d9e:	0152      	lsls	r2, r2, #5
 8002da0:	4293      	cmp	r3, r2
 8002da2:	d900      	bls.n	8002da6 <HAL_TIM_ConfigClockSource+0x7a>
 8002da4:	e07e      	b.n	8002ea4 <HAL_TIM_ConfigClockSource+0x178>
 8002da6:	2b70      	cmp	r3, #112	; 0x70
 8002da8:	d018      	beq.n	8002ddc <HAL_TIM_ConfigClockSource+0xb0>
 8002daa:	d900      	bls.n	8002dae <HAL_TIM_ConfigClockSource+0x82>
 8002dac:	e07a      	b.n	8002ea4 <HAL_TIM_ConfigClockSource+0x178>
 8002dae:	2b60      	cmp	r3, #96	; 0x60
 8002db0:	d04f      	beq.n	8002e52 <HAL_TIM_ConfigClockSource+0x126>
 8002db2:	d900      	bls.n	8002db6 <HAL_TIM_ConfigClockSource+0x8a>
 8002db4:	e076      	b.n	8002ea4 <HAL_TIM_ConfigClockSource+0x178>
 8002db6:	2b50      	cmp	r3, #80	; 0x50
 8002db8:	d03b      	beq.n	8002e32 <HAL_TIM_ConfigClockSource+0x106>
 8002dba:	d900      	bls.n	8002dbe <HAL_TIM_ConfigClockSource+0x92>
 8002dbc:	e072      	b.n	8002ea4 <HAL_TIM_ConfigClockSource+0x178>
 8002dbe:	2b40      	cmp	r3, #64	; 0x40
 8002dc0:	d057      	beq.n	8002e72 <HAL_TIM_ConfigClockSource+0x146>
 8002dc2:	d900      	bls.n	8002dc6 <HAL_TIM_ConfigClockSource+0x9a>
 8002dc4:	e06e      	b.n	8002ea4 <HAL_TIM_ConfigClockSource+0x178>
 8002dc6:	2b30      	cmp	r3, #48	; 0x30
 8002dc8:	d063      	beq.n	8002e92 <HAL_TIM_ConfigClockSource+0x166>
 8002dca:	d86b      	bhi.n	8002ea4 <HAL_TIM_ConfigClockSource+0x178>
 8002dcc:	2b20      	cmp	r3, #32
 8002dce:	d060      	beq.n	8002e92 <HAL_TIM_ConfigClockSource+0x166>
 8002dd0:	d868      	bhi.n	8002ea4 <HAL_TIM_ConfigClockSource+0x178>
 8002dd2:	2b00      	cmp	r3, #0
 8002dd4:	d05d      	beq.n	8002e92 <HAL_TIM_ConfigClockSource+0x166>
 8002dd6:	2b10      	cmp	r3, #16
 8002dd8:	d05b      	beq.n	8002e92 <HAL_TIM_ConfigClockSource+0x166>
 8002dda:	e063      	b.n	8002ea4 <HAL_TIM_ConfigClockSource+0x178>
 8002ddc:	687b      	ldr	r3, [r7, #4]
 8002dde:	6818      	ldr	r0, [r3, #0]
 8002de0:	683b      	ldr	r3, [r7, #0]
 8002de2:	6899      	ldr	r1, [r3, #8]
 8002de4:	683b      	ldr	r3, [r7, #0]
 8002de6:	685a      	ldr	r2, [r3, #4]
 8002de8:	683b      	ldr	r3, [r7, #0]
 8002dea:	68db      	ldr	r3, [r3, #12]
 8002dec:	f000 fb68 	bl	80034c0 <TIM_ETR_SetConfig>
 8002df0:	687b      	ldr	r3, [r7, #4]
 8002df2:	681b      	ldr	r3, [r3, #0]
 8002df4:	689b      	ldr	r3, [r3, #8]
 8002df6:	60bb      	str	r3, [r7, #8]
 8002df8:	68bb      	ldr	r3, [r7, #8]
 8002dfa:	2277      	movs	r2, #119	; 0x77
 8002dfc:	4313      	orrs	r3, r2
 8002dfe:	60bb      	str	r3, [r7, #8]
 8002e00:	687b      	ldr	r3, [r7, #4]
 8002e02:	681b      	ldr	r3, [r3, #0]
 8002e04:	68ba      	ldr	r2, [r7, #8]
 8002e06:	609a      	str	r2, [r3, #8]
 8002e08:	e052      	b.n	8002eb0 <HAL_TIM_ConfigClockSource+0x184>
 8002e0a:	687b      	ldr	r3, [r7, #4]
 8002e0c:	6818      	ldr	r0, [r3, #0]
 8002e0e:	683b      	ldr	r3, [r7, #0]
 8002e10:	6899      	ldr	r1, [r3, #8]
 8002e12:	683b      	ldr	r3, [r7, #0]
 8002e14:	685a      	ldr	r2, [r3, #4]
 8002e16:	683b      	ldr	r3, [r7, #0]
 8002e18:	68db      	ldr	r3, [r3, #12]
 8002e1a:	f000 fb51 	bl	80034c0 <TIM_ETR_SetConfig>
 8002e1e:	687b      	ldr	r3, [r7, #4]
 8002e20:	681b      	ldr	r3, [r3, #0]
 8002e22:	689a      	ldr	r2, [r3, #8]
 8002e24:	687b      	ldr	r3, [r7, #4]
 8002e26:	681b      	ldr	r3, [r3, #0]
 8002e28:	2180      	movs	r1, #128	; 0x80
 8002e2a:	01c9      	lsls	r1, r1, #7
 8002e2c:	430a      	orrs	r2, r1
 8002e2e:	609a      	str	r2, [r3, #8]
 8002e30:	e03e      	b.n	8002eb0 <HAL_TIM_ConfigClockSource+0x184>
 8002e32:	687b      	ldr	r3, [r7, #4]
 8002e34:	6818      	ldr	r0, [r3, #0]
 8002e36:	683b      	ldr	r3, [r7, #0]
 8002e38:	6859      	ldr	r1, [r3, #4]
 8002e3a:	683b      	ldr	r3, [r7, #0]
 8002e3c:	68db      	ldr	r3, [r3, #12]
 8002e3e:	001a      	movs	r2, r3
 8002e40:	f000 fac4 	bl	80033cc <TIM_TI1_ConfigInputStage>
 8002e44:	687b      	ldr	r3, [r7, #4]
 8002e46:	681b      	ldr	r3, [r3, #0]
 8002e48:	2150      	movs	r1, #80	; 0x50
 8002e4a:	0018      	movs	r0, r3
 8002e4c:	f000 fb1e 	bl	800348c <TIM_ITRx_SetConfig>
 8002e50:	e02e      	b.n	8002eb0 <HAL_TIM_ConfigClockSource+0x184>
 8002e52:	687b      	ldr	r3, [r7, #4]
 8002e54:	6818      	ldr	r0, [r3, #0]
 8002e56:	683b      	ldr	r3, [r7, #0]
 8002e58:	6859      	ldr	r1, [r3, #4]
 8002e5a:	683b      	ldr	r3, [r7, #0]
 8002e5c:	68db      	ldr	r3, [r3, #12]
 8002e5e:	001a      	movs	r2, r3
 8002e60:	f000 fae2 	bl	8003428 <TIM_TI2_ConfigInputStage>
 8002e64:	687b      	ldr	r3, [r7, #4]
 8002e66:	681b      	ldr	r3, [r3, #0]
 8002e68:	2160      	movs	r1, #96	; 0x60
 8002e6a:	0018      	movs	r0, r3
 8002e6c:	f000 fb0e 	bl	800348c <TIM_ITRx_SetConfig>
 8002e70:	e01e      	b.n	8002eb0 <HAL_TIM_ConfigClockSource+0x184>
 8002e72:	687b      	ldr	r3, [r7, #4]
 8002e74:	6818      	ldr	r0, [r3, #0]
 8002e76:	683b      	ldr	r3, [r7, #0]
 8002e78:	6859      	ldr	r1, [r3, #4]
 8002e7a:	683b      	ldr	r3, [r7, #0]
 8002e7c:	68db      	ldr	r3, [r3, #12]
 8002e7e:	001a      	movs	r2, r3
 8002e80:	f000 faa4 	bl	80033cc <TIM_TI1_ConfigInputStage>
 8002e84:	687b      	ldr	r3, [r7, #4]
 8002e86:	681b      	ldr	r3, [r3, #0]
 8002e88:	2140      	movs	r1, #64	; 0x40
 8002e8a:	0018      	movs	r0, r3
 8002e8c:	f000 fafe 	bl	800348c <TIM_ITRx_SetConfig>
 8002e90:	e00e      	b.n	8002eb0 <HAL_TIM_ConfigClockSource+0x184>
 8002e92:	687b      	ldr	r3, [r7, #4]
 8002e94:	681a      	ldr	r2, [r3, #0]
 8002e96:	683b      	ldr	r3, [r7, #0]
 8002e98:	681b      	ldr	r3, [r3, #0]
 8002e9a:	0019      	movs	r1, r3
 8002e9c:	0010      	movs	r0, r2
 8002e9e:	f000 faf5 	bl	800348c <TIM_ITRx_SetConfig>
 8002ea2:	e005      	b.n	8002eb0 <HAL_TIM_ConfigClockSource+0x184>
 8002ea4:	230f      	movs	r3, #15
 8002ea6:	18fb      	adds	r3, r7, r3
 8002ea8:	2201      	movs	r2, #1
 8002eaa:	701a      	strb	r2, [r3, #0]
 8002eac:	e000      	b.n	8002eb0 <HAL_TIM_ConfigClockSource+0x184>
 8002eae:	46c0      	nop			; (mov r8, r8)
 8002eb0:	687b      	ldr	r3, [r7, #4]
 8002eb2:	223d      	movs	r2, #61	; 0x3d
 8002eb4:	2101      	movs	r1, #1
 8002eb6:	5499      	strb	r1, [r3, r2]
 8002eb8:	687b      	ldr	r3, [r7, #4]
 8002eba:	223c      	movs	r2, #60	; 0x3c
 8002ebc:	2100      	movs	r1, #0
 8002ebe:	5499      	strb	r1, [r3, r2]
 8002ec0:	230f      	movs	r3, #15
 8002ec2:	18fb      	adds	r3, r7, r3
 8002ec4:	781b      	ldrb	r3, [r3, #0]
 8002ec6:	0018      	movs	r0, r3
 8002ec8:	46bd      	mov	sp, r7
 8002eca:	b004      	add	sp, #16
 8002ecc:	bd80      	pop	{r7, pc}
 8002ece:	46c0      	nop			; (mov r8, r8)
 8002ed0:	ffff00ff 	.word	0xffff00ff

08002ed4 <TIM_Base_SetConfig>:
 8002ed4:	b580      	push	{r7, lr}
 8002ed6:	b084      	sub	sp, #16
 8002ed8:	af00      	add	r7, sp, #0
 8002eda:	6078      	str	r0, [r7, #4]
 8002edc:	6039      	str	r1, [r7, #0]
 8002ede:	687b      	ldr	r3, [r7, #4]
 8002ee0:	681b      	ldr	r3, [r3, #0]
 8002ee2:	60fb      	str	r3, [r7, #12]
 8002ee4:	687b      	ldr	r3, [r7, #4]
 8002ee6:	4a34      	ldr	r2, [pc, #208]	; (8002fb8 <TIM_Base_SetConfig+0xe4>)
 8002ee8:	4293      	cmp	r3, r2
 8002eea:	d008      	beq.n	8002efe <TIM_Base_SetConfig+0x2a>
 8002eec:	687a      	ldr	r2, [r7, #4]
 8002eee:	2380      	movs	r3, #128	; 0x80
 8002ef0:	05db      	lsls	r3, r3, #23
 8002ef2:	429a      	cmp	r2, r3
 8002ef4:	d003      	beq.n	8002efe <TIM_Base_SetConfig+0x2a>
 8002ef6:	687b      	ldr	r3, [r7, #4]
 8002ef8:	4a30      	ldr	r2, [pc, #192]	; (8002fbc <TIM_Base_SetConfig+0xe8>)
 8002efa:	4293      	cmp	r3, r2
 8002efc:	d108      	bne.n	8002f10 <TIM_Base_SetConfig+0x3c>
 8002efe:	68fb      	ldr	r3, [r7, #12]
 8002f00:	2270      	movs	r2, #112	; 0x70
 8002f02:	4393      	bics	r3, r2
 8002f04:	60fb      	str	r3, [r7, #12]
 8002f06:	683b      	ldr	r3, [r7, #0]
 8002f08:	685b      	ldr	r3, [r3, #4]
 8002f0a:	68fa      	ldr	r2, [r7, #12]
 8002f0c:	4313      	orrs	r3, r2
 8002f0e:	60fb      	str	r3, [r7, #12]
 8002f10:	687b      	ldr	r3, [r7, #4]
 8002f12:	4a29      	ldr	r2, [pc, #164]	; (8002fb8 <TIM_Base_SetConfig+0xe4>)
 8002f14:	4293      	cmp	r3, r2
 8002f16:	d018      	beq.n	8002f4a <TIM_Base_SetConfig+0x76>
 8002f18:	687a      	ldr	r2, [r7, #4]
 8002f1a:	2380      	movs	r3, #128	; 0x80
 8002f1c:	05db      	lsls	r3, r3, #23
 8002f1e:	429a      	cmp	r2, r3
 8002f20:	d013      	beq.n	8002f4a <TIM_Base_SetConfig+0x76>
 8002f22:	687b      	ldr	r3, [r7, #4]
 8002f24:	4a25      	ldr	r2, [pc, #148]	; (8002fbc <TIM_Base_SetConfig+0xe8>)
 8002f26:	4293      	cmp	r3, r2
 8002f28:	d00f      	beq.n	8002f4a <TIM_Base_SetConfig+0x76>
 8002f2a:	687b      	ldr	r3, [r7, #4]
 8002f2c:	4a24      	ldr	r2, [pc, #144]	; (8002fc0 <TIM_Base_SetConfig+0xec>)
 8002f2e:	4293      	cmp	r3, r2
 8002f30:	d00b      	beq.n	8002f4a <TIM_Base_SetConfig+0x76>
 8002f32:	687b      	ldr	r3, [r7, #4]
 8002f34:	4a23      	ldr	r2, [pc, #140]	; (8002fc4 <TIM_Base_SetConfig+0xf0>)
 8002f36:	4293      	cmp	r3, r2
 8002f38:	d007      	beq.n	8002f4a <TIM_Base_SetConfig+0x76>
 8002f3a:	687b      	ldr	r3, [r7, #4]
 8002f3c:	4a22      	ldr	r2, [pc, #136]	; (8002fc8 <TIM_Base_SetConfig+0xf4>)
 8002f3e:	4293      	cmp	r3, r2
 8002f40:	d003      	beq.n	8002f4a <TIM_Base_SetConfig+0x76>
 8002f42:	687b      	ldr	r3, [r7, #4]
 8002f44:	4a21      	ldr	r2, [pc, #132]	; (8002fcc <TIM_Base_SetConfig+0xf8>)
 8002f46:	4293      	cmp	r3, r2
 8002f48:	d108      	bne.n	8002f5c <TIM_Base_SetConfig+0x88>
 8002f4a:	68fb      	ldr	r3, [r7, #12]
 8002f4c:	4a20      	ldr	r2, [pc, #128]	; (8002fd0 <TIM_Base_SetConfig+0xfc>)
 8002f4e:	4013      	ands	r3, r2
 8002f50:	60fb      	str	r3, [r7, #12]
 8002f52:	683b      	ldr	r3, [r7, #0]
 8002f54:	68db      	ldr	r3, [r3, #12]
 8002f56:	68fa      	ldr	r2, [r7, #12]
 8002f58:	4313      	orrs	r3, r2
 8002f5a:	60fb      	str	r3, [r7, #12]
 8002f5c:	68fb      	ldr	r3, [r7, #12]
 8002f5e:	2280      	movs	r2, #128	; 0x80
 8002f60:	4393      	bics	r3, r2
 8002f62:	001a      	movs	r2, r3
 8002f64:	683b      	ldr	r3, [r7, #0]
 8002f66:	695b      	ldr	r3, [r3, #20]
 8002f68:	4313      	orrs	r3, r2
 8002f6a:	60fb      	str	r3, [r7, #12]
 8002f6c:	687b      	ldr	r3, [r7, #4]
 8002f6e:	68fa      	ldr	r2, [r7, #12]
 8002f70:	601a      	str	r2, [r3, #0]
 8002f72:	683b      	ldr	r3, [r7, #0]
 8002f74:	689a      	ldr	r2, [r3, #8]
 8002f76:	687b      	ldr	r3, [r7, #4]
 8002f78:	62da      	str	r2, [r3, #44]	; 0x2c
 8002f7a:	683b      	ldr	r3, [r7, #0]
 8002f7c:	681a      	ldr	r2, [r3, #0]
 8002f7e:	687b      	ldr	r3, [r7, #4]
 8002f80:	629a      	str	r2, [r3, #40]	; 0x28
 8002f82:	687b      	ldr	r3, [r7, #4]
 8002f84:	4a0c      	ldr	r2, [pc, #48]	; (8002fb8 <TIM_Base_SetConfig+0xe4>)
 8002f86:	4293      	cmp	r3, r2
 8002f88:	d00b      	beq.n	8002fa2 <TIM_Base_SetConfig+0xce>
 8002f8a:	687b      	ldr	r3, [r7, #4]
 8002f8c:	4a0d      	ldr	r2, [pc, #52]	; (8002fc4 <TIM_Base_SetConfig+0xf0>)
 8002f8e:	4293      	cmp	r3, r2
 8002f90:	d007      	beq.n	8002fa2 <TIM_Base_SetConfig+0xce>
 8002f92:	687b      	ldr	r3, [r7, #4]
 8002f94:	4a0c      	ldr	r2, [pc, #48]	; (8002fc8 <TIM_Base_SetConfig+0xf4>)
 8002f96:	4293      	cmp	r3, r2
 8002f98:	d003      	beq.n	8002fa2 <TIM_Base_SetConfig+0xce>
 8002f9a:	687b      	ldr	r3, [r7, #4]
 8002f9c:	4a0b      	ldr	r2, [pc, #44]	; (8002fcc <TIM_Base_SetConfig+0xf8>)
 8002f9e:	4293      	cmp	r3, r2
 8002fa0:	d103      	bne.n	8002faa <TIM_Base_SetConfig+0xd6>
 8002fa2:	683b      	ldr	r3, [r7, #0]
 8002fa4:	691a      	ldr	r2, [r3, #16]
 8002fa6:	687b      	ldr	r3, [r7, #4]
 8002fa8:	631a      	str	r2, [r3, #48]	; 0x30
 8002faa:	687b      	ldr	r3, [r7, #4]
 8002fac:	2201      	movs	r2, #1
 8002fae:	615a      	str	r2, [r3, #20]
 8002fb0:	46c0      	nop			; (mov r8, r8)
 8002fb2:	46bd      	mov	sp, r7
 8002fb4:	b004      	add	sp, #16
 8002fb6:	bd80      	pop	{r7, pc}
 8002fb8:	40012c00 	.word	0x40012c00
 8002fbc:	40000400 	.word	0x40000400
 8002fc0:	40002000 	.word	0x40002000
 8002fc4:	40014000 	.word	0x40014000
 8002fc8:	40014400 	.word	0x40014400
 8002fcc:	40014800 	.word	0x40014800
 8002fd0:	fffffcff 	.word	0xfffffcff

08002fd4 <TIM_OC1_SetConfig>:
 8002fd4:	b580      	push	{r7, lr}
 8002fd6:	b086      	sub	sp, #24
 8002fd8:	af00      	add	r7, sp, #0
 8002fda:	6078      	str	r0, [r7, #4]
 8002fdc:	6039      	str	r1, [r7, #0]
 8002fde:	687b      	ldr	r3, [r7, #4]
 8002fe0:	6a1b      	ldr	r3, [r3, #32]
 8002fe2:	2201      	movs	r2, #1
 8002fe4:	4393      	bics	r3, r2
 8002fe6:	001a      	movs	r2, r3
 8002fe8:	687b      	ldr	r3, [r7, #4]
 8002fea:	621a      	str	r2, [r3, #32]
 8002fec:	687b      	ldr	r3, [r7, #4]
 8002fee:	6a1b      	ldr	r3, [r3, #32]
 8002ff0:	617b      	str	r3, [r7, #20]
 8002ff2:	687b      	ldr	r3, [r7, #4]
 8002ff4:	685b      	ldr	r3, [r3, #4]
 8002ff6:	613b      	str	r3, [r7, #16]
 8002ff8:	687b      	ldr	r3, [r7, #4]
 8002ffa:	699b      	ldr	r3, [r3, #24]
 8002ffc:	60fb      	str	r3, [r7, #12]
 8002ffe:	68fb      	ldr	r3, [r7, #12]
 8003000:	2270      	movs	r2, #112	; 0x70
 8003002:	4393      	bics	r3, r2
 8003004:	60fb      	str	r3, [r7, #12]
 8003006:	68fb      	ldr	r3, [r7, #12]
 8003008:	2203      	movs	r2, #3
 800300a:	4393      	bics	r3, r2
 800300c:	60fb      	str	r3, [r7, #12]
 800300e:	683b      	ldr	r3, [r7, #0]
 8003010:	681b      	ldr	r3, [r3, #0]
 8003012:	68fa      	ldr	r2, [r7, #12]
 8003014:	4313      	orrs	r3, r2
 8003016:	60fb      	str	r3, [r7, #12]
 8003018:	697b      	ldr	r3, [r7, #20]
 800301a:	2202      	movs	r2, #2
 800301c:	4393      	bics	r3, r2
 800301e:	617b      	str	r3, [r7, #20]
 8003020:	683b      	ldr	r3, [r7, #0]
 8003022:	689b      	ldr	r3, [r3, #8]
 8003024:	697a      	ldr	r2, [r7, #20]
 8003026:	4313      	orrs	r3, r2
 8003028:	617b      	str	r3, [r7, #20]
 800302a:	687b      	ldr	r3, [r7, #4]
 800302c:	4a27      	ldr	r2, [pc, #156]	; (80030cc <TIM_OC1_SetConfig+0xf8>)
 800302e:	4293      	cmp	r3, r2
 8003030:	d00b      	beq.n	800304a <TIM_OC1_SetConfig+0x76>
 8003032:	687b      	ldr	r3, [r7, #4]
 8003034:	4a26      	ldr	r2, [pc, #152]	; (80030d0 <TIM_OC1_SetConfig+0xfc>)
 8003036:	4293      	cmp	r3, r2
 8003038:	d007      	beq.n	800304a <TIM_OC1_SetConfig+0x76>
 800303a:	687b      	ldr	r3, [r7, #4]
 800303c:	4a25      	ldr	r2, [pc, #148]	; (80030d4 <TIM_OC1_SetConfig+0x100>)
 800303e:	4293      	cmp	r3, r2
 8003040:	d003      	beq.n	800304a <TIM_OC1_SetConfig+0x76>
 8003042:	687b      	ldr	r3, [r7, #4]
 8003044:	4a24      	ldr	r2, [pc, #144]	; (80030d8 <TIM_OC1_SetConfig+0x104>)
 8003046:	4293      	cmp	r3, r2
 8003048:	d10c      	bne.n	8003064 <TIM_OC1_SetConfig+0x90>
 800304a:	697b      	ldr	r3, [r7, #20]
 800304c:	2208      	movs	r2, #8
 800304e:	4393      	bics	r3, r2
 8003050:	617b      	str	r3, [r7, #20]
 8003052:	683b      	ldr	r3, [r7, #0]
 8003054:	68db      	ldr	r3, [r3, #12]
 8003056:	697a      	ldr	r2, [r7, #20]
 8003058:	4313      	orrs	r3, r2
 800305a:	617b      	str	r3, [r7, #20]
 800305c:	697b      	ldr	r3, [r7, #20]
 800305e:	2204      	movs	r2, #4
 8003060:	4393      	bics	r3, r2
 8003062:	617b      	str	r3, [r7, #20]
 8003064:	687b      	ldr	r3, [r7, #4]
 8003066:	4a19      	ldr	r2, [pc, #100]	; (80030cc <TIM_OC1_SetConfig+0xf8>)
 8003068:	4293      	cmp	r3, r2
 800306a:	d00b      	beq.n	8003084 <TIM_OC1_SetConfig+0xb0>
 800306c:	687b      	ldr	r3, [r7, #4]
 800306e:	4a18      	ldr	r2, [pc, #96]	; (80030d0 <TIM_OC1_SetConfig+0xfc>)
 8003070:	4293      	cmp	r3, r2
 8003072:	d007      	beq.n	8003084 <TIM_OC1_SetConfig+0xb0>
 8003074:	687b      	ldr	r3, [r7, #4]
 8003076:	4a17      	ldr	r2, [pc, #92]	; (80030d4 <TIM_OC1_SetConfig+0x100>)
 8003078:	4293      	cmp	r3, r2
 800307a:	d003      	beq.n	8003084 <TIM_OC1_SetConfig+0xb0>
 800307c:	687b      	ldr	r3, [r7, #4]
 800307e:	4a16      	ldr	r2, [pc, #88]	; (80030d8 <TIM_OC1_SetConfig+0x104>)
 8003080:	4293      	cmp	r3, r2
 8003082:	d111      	bne.n	80030a8 <TIM_OC1_SetConfig+0xd4>
 8003084:	693b      	ldr	r3, [r7, #16]
 8003086:	4a15      	ldr	r2, [pc, #84]	; (80030dc <TIM_OC1_SetConfig+0x108>)
 8003088:	4013      	ands	r3, r2
 800308a:	613b      	str	r3, [r7, #16]
 800308c:	693b      	ldr	r3, [r7, #16]
 800308e:	4a14      	ldr	r2, [pc, #80]	; (80030e0 <TIM_OC1_SetConfig+0x10c>)
 8003090:	4013      	ands	r3, r2
 8003092:	613b      	str	r3, [r7, #16]
 8003094:	683b      	ldr	r3, [r7, #0]
 8003096:	695b      	ldr	r3, [r3, #20]
 8003098:	693a      	ldr	r2, [r7, #16]
 800309a:	4313      	orrs	r3, r2
 800309c:	613b      	str	r3, [r7, #16]
 800309e:	683b      	ldr	r3, [r7, #0]
 80030a0:	699b      	ldr	r3, [r3, #24]
 80030a2:	693a      	ldr	r2, [r7, #16]
 80030a4:	4313      	orrs	r3, r2
 80030a6:	613b      	str	r3, [r7, #16]
 80030a8:	687b      	ldr	r3, [r7, #4]
 80030aa:	693a      	ldr	r2, [r7, #16]
 80030ac:	605a      	str	r2, [r3, #4]
 80030ae:	687b      	ldr	r3, [r7, #4]
 80030b0:	68fa      	ldr	r2, [r7, #12]
 80030b2:	619a      	str	r2, [r3, #24]
 80030b4:	683b      	ldr	r3, [r7, #0]
 80030b6:	685a      	ldr	r2, [r3, #4]
 80030b8:	687b      	ldr	r3, [r7, #4]
 80030ba:	635a      	str	r2, [r3, #52]	; 0x34
 80030bc:	687b      	ldr	r3, [r7, #4]
 80030be:	697a      	ldr	r2, [r7, #20]
 80030c0:	621a      	str	r2, [r3, #32]
 80030c2:	46c0      	nop			; (mov r8, r8)
 80030c4:	46bd      	mov	sp, r7
 80030c6:	b006      	add	sp, #24
 80030c8:	bd80      	pop	{r7, pc}
 80030ca:	46c0      	nop			; (mov r8, r8)
 80030cc:	40012c00 	.word	0x40012c00
 80030d0:	40014000 	.word	0x40014000
 80030d4:	40014400 	.word	0x40014400
 80030d8:	40014800 	.word	0x40014800
 80030dc:	fffffeff 	.word	0xfffffeff
 80030e0:	fffffdff 	.word	0xfffffdff

080030e4 <TIM_OC2_SetConfig>:
 80030e4:	b580      	push	{r7, lr}
 80030e6:	b086      	sub	sp, #24
 80030e8:	af00      	add	r7, sp, #0
 80030ea:	6078      	str	r0, [r7, #4]
 80030ec:	6039      	str	r1, [r7, #0]
 80030ee:	687b      	ldr	r3, [r7, #4]
 80030f0:	6a1b      	ldr	r3, [r3, #32]
 80030f2:	2210      	movs	r2, #16
 80030f4:	4393      	bics	r3, r2
 80030f6:	001a      	movs	r2, r3
 80030f8:	687b      	ldr	r3, [r7, #4]
 80030fa:	621a      	str	r2, [r3, #32]
 80030fc:	687b      	ldr	r3, [r7, #4]
 80030fe:	6a1b      	ldr	r3, [r3, #32]
 8003100:	617b      	str	r3, [r7, #20]
 8003102:	687b      	ldr	r3, [r7, #4]
 8003104:	685b      	ldr	r3, [r3, #4]
 8003106:	613b      	str	r3, [r7, #16]
 8003108:	687b      	ldr	r3, [r7, #4]
 800310a:	699b      	ldr	r3, [r3, #24]
 800310c:	60fb      	str	r3, [r7, #12]
 800310e:	68fb      	ldr	r3, [r7, #12]
 8003110:	4a2e      	ldr	r2, [pc, #184]	; (80031cc <TIM_OC2_SetConfig+0xe8>)
 8003112:	4013      	ands	r3, r2
 8003114:	60fb      	str	r3, [r7, #12]
 8003116:	68fb      	ldr	r3, [r7, #12]
 8003118:	4a2d      	ldr	r2, [pc, #180]	; (80031d0 <TIM_OC2_SetConfig+0xec>)
 800311a:	4013      	ands	r3, r2
 800311c:	60fb      	str	r3, [r7, #12]
 800311e:	683b      	ldr	r3, [r7, #0]
 8003120:	681b      	ldr	r3, [r3, #0]
 8003122:	021b      	lsls	r3, r3, #8
 8003124:	68fa      	ldr	r2, [r7, #12]
 8003126:	4313      	orrs	r3, r2
 8003128:	60fb      	str	r3, [r7, #12]
 800312a:	697b      	ldr	r3, [r7, #20]
 800312c:	2220      	movs	r2, #32
 800312e:	4393      	bics	r3, r2
 8003130:	617b      	str	r3, [r7, #20]
 8003132:	683b      	ldr	r3, [r7, #0]
 8003134:	689b      	ldr	r3, [r3, #8]
 8003136:	011b      	lsls	r3, r3, #4
 8003138:	697a      	ldr	r2, [r7, #20]
 800313a:	4313      	orrs	r3, r2
 800313c:	617b      	str	r3, [r7, #20]
 800313e:	687b      	ldr	r3, [r7, #4]
 8003140:	4a24      	ldr	r2, [pc, #144]	; (80031d4 <TIM_OC2_SetConfig+0xf0>)
 8003142:	4293      	cmp	r3, r2
 8003144:	d10d      	bne.n	8003162 <TIM_OC2_SetConfig+0x7e>
 8003146:	697b      	ldr	r3, [r7, #20]
 8003148:	2280      	movs	r2, #128	; 0x80
 800314a:	4393      	bics	r3, r2
 800314c:	617b      	str	r3, [r7, #20]
 800314e:	683b      	ldr	r3, [r7, #0]
 8003150:	68db      	ldr	r3, [r3, #12]
 8003152:	011b      	lsls	r3, r3, #4
 8003154:	697a      	ldr	r2, [r7, #20]
 8003156:	4313      	orrs	r3, r2
 8003158:	617b      	str	r3, [r7, #20]
 800315a:	697b      	ldr	r3, [r7, #20]
 800315c:	2240      	movs	r2, #64	; 0x40
 800315e:	4393      	bics	r3, r2
 8003160:	617b      	str	r3, [r7, #20]
 8003162:	687b      	ldr	r3, [r7, #4]
 8003164:	4a1b      	ldr	r2, [pc, #108]	; (80031d4 <TIM_OC2_SetConfig+0xf0>)
 8003166:	4293      	cmp	r3, r2
 8003168:	d00b      	beq.n	8003182 <TIM_OC2_SetConfig+0x9e>
 800316a:	687b      	ldr	r3, [r7, #4]
 800316c:	4a1a      	ldr	r2, [pc, #104]	; (80031d8 <TIM_OC2_SetConfig+0xf4>)
 800316e:	4293      	cmp	r3, r2
 8003170:	d007      	beq.n	8003182 <TIM_OC2_SetConfig+0x9e>
 8003172:	687b      	ldr	r3, [r7, #4]
 8003174:	4a19      	ldr	r2, [pc, #100]	; (80031dc <TIM_OC2_SetConfig+0xf8>)
 8003176:	4293      	cmp	r3, r2
 8003178:	d003      	beq.n	8003182 <TIM_OC2_SetConfig+0x9e>
 800317a:	687b      	ldr	r3, [r7, #4]
 800317c:	4a18      	ldr	r2, [pc, #96]	; (80031e0 <TIM_OC2_SetConfig+0xfc>)
 800317e:	4293      	cmp	r3, r2
 8003180:	d113      	bne.n	80031aa <TIM_OC2_SetConfig+0xc6>
 8003182:	693b      	ldr	r3, [r7, #16]
 8003184:	4a17      	ldr	r2, [pc, #92]	; (80031e4 <TIM_OC2_SetConfig+0x100>)
 8003186:	4013      	ands	r3, r2
 8003188:	613b      	str	r3, [r7, #16]
 800318a:	693b      	ldr	r3, [r7, #16]
 800318c:	4a16      	ldr	r2, [pc, #88]	; (80031e8 <TIM_OC2_SetConfig+0x104>)
 800318e:	4013      	ands	r3, r2
 8003190:	613b      	str	r3, [r7, #16]
 8003192:	683b      	ldr	r3, [r7, #0]
 8003194:	695b      	ldr	r3, [r3, #20]
 8003196:	009b      	lsls	r3, r3, #2
 8003198:	693a      	ldr	r2, [r7, #16]
 800319a:	4313      	orrs	r3, r2
 800319c:	613b      	str	r3, [r7, #16]
 800319e:	683b      	ldr	r3, [r7, #0]
 80031a0:	699b      	ldr	r3, [r3, #24]
 80031a2:	009b      	lsls	r3, r3, #2
 80031a4:	693a      	ldr	r2, [r7, #16]
 80031a6:	4313      	orrs	r3, r2
 80031a8:	613b      	str	r3, [r7, #16]
 80031aa:	687b      	ldr	r3, [r7, #4]
 80031ac:	693a      	ldr	r2, [r7, #16]
 80031ae:	605a      	str	r2, [r3, #4]
 80031b0:	687b      	ldr	r3, [r7, #4]
 80031b2:	68fa      	ldr	r2, [r7, #12]
 80031b4:	619a      	str	r2, [r3, #24]
 80031b6:	683b      	ldr	r3, [r7, #0]
 80031b8:	685a      	ldr	r2, [r3, #4]
 80031ba:	687b      	ldr	r3, [r7, #4]
 80031bc:	639a      	str	r2, [r3, #56]	; 0x38
 80031be:	687b      	ldr	r3, [r7, #4]
 80031c0:	697a      	ldr	r2, [r7, #20]
 80031c2:	621a      	str	r2, [r3, #32]
 80031c4:	46c0      	nop			; (mov r8, r8)
 80031c6:	46bd      	mov	sp, r7
 80031c8:	b006      	add	sp, #24
 80031ca:	bd80      	pop	{r7, pc}
 80031cc:	ffff8fff 	.word	0xffff8fff
 80031d0:	fffffcff 	.word	0xfffffcff
 80031d4:	40012c00 	.word	0x40012c00
 80031d8:	40014000 	.word	0x40014000
 80031dc:	40014400 	.word	0x40014400
 80031e0:	40014800 	.word	0x40014800
 80031e4:	fffffbff 	.word	0xfffffbff
 80031e8:	fffff7ff 	.word	0xfffff7ff

080031ec <TIM_OC3_SetConfig>:
 80031ec:	b580      	push	{r7, lr}
 80031ee:	b086      	sub	sp, #24
 80031f0:	af00      	add	r7, sp, #0
 80031f2:	6078      	str	r0, [r7, #4]
 80031f4:	6039      	str	r1, [r7, #0]
 80031f6:	687b      	ldr	r3, [r7, #4]
 80031f8:	6a1b      	ldr	r3, [r3, #32]
 80031fa:	4a35      	ldr	r2, [pc, #212]	; (80032d0 <TIM_OC3_SetConfig+0xe4>)
 80031fc:	401a      	ands	r2, r3
 80031fe:	687b      	ldr	r3, [r7, #4]
 8003200:	621a      	str	r2, [r3, #32]
 8003202:	687b      	ldr	r3, [r7, #4]
 8003204:	6a1b      	ldr	r3, [r3, #32]
 8003206:	617b      	str	r3, [r7, #20]
 8003208:	687b      	ldr	r3, [r7, #4]
 800320a:	685b      	ldr	r3, [r3, #4]
 800320c:	613b      	str	r3, [r7, #16]
 800320e:	687b      	ldr	r3, [r7, #4]
 8003210:	69db      	ldr	r3, [r3, #28]
 8003212:	60fb      	str	r3, [r7, #12]
 8003214:	68fb      	ldr	r3, [r7, #12]
 8003216:	2270      	movs	r2, #112	; 0x70
 8003218:	4393      	bics	r3, r2
 800321a:	60fb      	str	r3, [r7, #12]
 800321c:	68fb      	ldr	r3, [r7, #12]
 800321e:	2203      	movs	r2, #3
 8003220:	4393      	bics	r3, r2
 8003222:	60fb      	str	r3, [r7, #12]
 8003224:	683b      	ldr	r3, [r7, #0]
 8003226:	681b      	ldr	r3, [r3, #0]
 8003228:	68fa      	ldr	r2, [r7, #12]
 800322a:	4313      	orrs	r3, r2
 800322c:	60fb      	str	r3, [r7, #12]
 800322e:	697b      	ldr	r3, [r7, #20]
 8003230:	4a28      	ldr	r2, [pc, #160]	; (80032d4 <TIM_OC3_SetConfig+0xe8>)
 8003232:	4013      	ands	r3, r2
 8003234:	617b      	str	r3, [r7, #20]
 8003236:	683b      	ldr	r3, [r7, #0]
 8003238:	689b      	ldr	r3, [r3, #8]
 800323a:	021b      	lsls	r3, r3, #8
 800323c:	697a      	ldr	r2, [r7, #20]
 800323e:	4313      	orrs	r3, r2
 8003240:	617b      	str	r3, [r7, #20]
 8003242:	687b      	ldr	r3, [r7, #4]
 8003244:	4a24      	ldr	r2, [pc, #144]	; (80032d8 <TIM_OC3_SetConfig+0xec>)
 8003246:	4293      	cmp	r3, r2
 8003248:	d10d      	bne.n	8003266 <TIM_OC3_SetConfig+0x7a>
 800324a:	697b      	ldr	r3, [r7, #20]
 800324c:	4a23      	ldr	r2, [pc, #140]	; (80032dc <TIM_OC3_SetConfig+0xf0>)
 800324e:	4013      	ands	r3, r2
 8003250:	617b      	str	r3, [r7, #20]
 8003252:	683b      	ldr	r3, [r7, #0]
 8003254:	68db      	ldr	r3, [r3, #12]
 8003256:	021b      	lsls	r3, r3, #8
 8003258:	697a      	ldr	r2, [r7, #20]
 800325a:	4313      	orrs	r3, r2
 800325c:	617b      	str	r3, [r7, #20]
 800325e:	697b      	ldr	r3, [r7, #20]
 8003260:	4a1f      	ldr	r2, [pc, #124]	; (80032e0 <TIM_OC3_SetConfig+0xf4>)
 8003262:	4013      	ands	r3, r2
 8003264:	617b      	str	r3, [r7, #20]
 8003266:	687b      	ldr	r3, [r7, #4]
 8003268:	4a1b      	ldr	r2, [pc, #108]	; (80032d8 <TIM_OC3_SetConfig+0xec>)
 800326a:	4293      	cmp	r3, r2
 800326c:	d00b      	beq.n	8003286 <TIM_OC3_SetConfig+0x9a>
 800326e:	687b      	ldr	r3, [r7, #4]
 8003270:	4a1c      	ldr	r2, [pc, #112]	; (80032e4 <TIM_OC3_SetConfig+0xf8>)
 8003272:	4293      	cmp	r3, r2
 8003274:	d007      	beq.n	8003286 <TIM_OC3_SetConfig+0x9a>
 8003276:	687b      	ldr	r3, [r7, #4]
 8003278:	4a1b      	ldr	r2, [pc, #108]	; (80032e8 <TIM_OC3_SetConfig+0xfc>)
 800327a:	4293      	cmp	r3, r2
 800327c:	d003      	beq.n	8003286 <TIM_OC3_SetConfig+0x9a>
 800327e:	687b      	ldr	r3, [r7, #4]
 8003280:	4a1a      	ldr	r2, [pc, #104]	; (80032ec <TIM_OC3_SetConfig+0x100>)
 8003282:	4293      	cmp	r3, r2
 8003284:	d113      	bne.n	80032ae <TIM_OC3_SetConfig+0xc2>
 8003286:	693b      	ldr	r3, [r7, #16]
 8003288:	4a19      	ldr	r2, [pc, #100]	; (80032f0 <TIM_OC3_SetConfig+0x104>)
 800328a:	4013      	ands	r3, r2
 800328c:	613b      	str	r3, [r7, #16]
 800328e:	693b      	ldr	r3, [r7, #16]
 8003290:	4a18      	ldr	r2, [pc, #96]	; (80032f4 <TIM_OC3_SetConfig+0x108>)
 8003292:	4013      	ands	r3, r2
 8003294:	613b      	str	r3, [r7, #16]
 8003296:	683b      	ldr	r3, [r7, #0]
 8003298:	695b      	ldr	r3, [r3, #20]
 800329a:	011b      	lsls	r3, r3, #4
 800329c:	693a      	ldr	r2, [r7, #16]
 800329e:	4313      	orrs	r3, r2
 80032a0:	613b      	str	r3, [r7, #16]
 80032a2:	683b      	ldr	r3, [r7, #0]
 80032a4:	699b      	ldr	r3, [r3, #24]
 80032a6:	011b      	lsls	r3, r3, #4
 80032a8:	693a      	ldr	r2, [r7, #16]
 80032aa:	4313      	orrs	r3, r2
 80032ac:	613b      	str	r3, [r7, #16]
 80032ae:	687b      	ldr	r3, [r7, #4]
 80032b0:	693a      	ldr	r2, [r7, #16]
 80032b2:	605a      	str	r2, [r3, #4]
 80032b4:	687b      	ldr	r3, [r7, #4]
 80032b6:	68fa      	ldr	r2, [r7, #12]
 80032b8:	61da      	str	r2, [r3, #28]
 80032ba:	683b      	ldr	r3, [r7, #0]
 80032bc:	685a      	ldr	r2, [r3, #4]
 80032be:	687b      	ldr	r3, [r7, #4]
 80032c0:	63da      	str	r2, [r3, #60]	; 0x3c
 80032c2:	687b      	ldr	r3, [r7, #4]
 80032c4:	697a      	ldr	r2, [r7, #20]
 80032c6:	621a      	str	r2, [r3, #32]
 80032c8:	46c0      	nop			; (mov r8, r8)
 80032ca:	46bd      	mov	sp, r7
 80032cc:	b006      	add	sp, #24
 80032ce:	bd80      	pop	{r7, pc}
 80032d0:	fffffeff 	.word	0xfffffeff
 80032d4:	fffffdff 	.word	0xfffffdff
 80032d8:	40012c00 	.word	0x40012c00
 80032dc:	fffff7ff 	.word	0xfffff7ff
 80032e0:	fffffbff 	.word	0xfffffbff
 80032e4:	40014000 	.word	0x40014000
 80032e8:	40014400 	.word	0x40014400
 80032ec:	40014800 	.word	0x40014800
 80032f0:	ffffefff 	.word	0xffffefff
 80032f4:	ffffdfff 	.word	0xffffdfff

080032f8 <TIM_OC4_SetConfig>:
 80032f8:	b580      	push	{r7, lr}
 80032fa:	b086      	sub	sp, #24
 80032fc:	af00      	add	r7, sp, #0
 80032fe:	6078      	str	r0, [r7, #4]
 8003300:	6039      	str	r1, [r7, #0]
 8003302:	687b      	ldr	r3, [r7, #4]
 8003304:	6a1b      	ldr	r3, [r3, #32]
 8003306:	4a28      	ldr	r2, [pc, #160]	; (80033a8 <TIM_OC4_SetConfig+0xb0>)
 8003308:	401a      	ands	r2, r3
 800330a:	687b      	ldr	r3, [r7, #4]
 800330c:	621a      	str	r2, [r3, #32]
 800330e:	687b      	ldr	r3, [r7, #4]
 8003310:	6a1b      	ldr	r3, [r3, #32]
 8003312:	613b      	str	r3, [r7, #16]
 8003314:	687b      	ldr	r3, [r7, #4]
 8003316:	685b      	ldr	r3, [r3, #4]
 8003318:	617b      	str	r3, [r7, #20]
 800331a:	687b      	ldr	r3, [r7, #4]
 800331c:	69db      	ldr	r3, [r3, #28]
 800331e:	60fb      	str	r3, [r7, #12]
 8003320:	68fb      	ldr	r3, [r7, #12]
 8003322:	4a22      	ldr	r2, [pc, #136]	; (80033ac <TIM_OC4_SetConfig+0xb4>)
 8003324:	4013      	ands	r3, r2
 8003326:	60fb      	str	r3, [r7, #12]
 8003328:	68fb      	ldr	r3, [r7, #12]
 800332a:	4a21      	ldr	r2, [pc, #132]	; (80033b0 <TIM_OC4_SetConfig+0xb8>)
 800332c:	4013      	ands	r3, r2
 800332e:	60fb      	str	r3, [r7, #12]
 8003330:	683b      	ldr	r3, [r7, #0]
 8003332:	681b      	ldr	r3, [r3, #0]
 8003334:	021b      	lsls	r3, r3, #8
 8003336:	68fa      	ldr	r2, [r7, #12]
 8003338:	4313      	orrs	r3, r2
 800333a:	60fb      	str	r3, [r7, #12]
 800333c:	693b      	ldr	r3, [r7, #16]
 800333e:	4a1d      	ldr	r2, [pc, #116]	; (80033b4 <TIM_OC4_SetConfig+0xbc>)
 8003340:	4013      	ands	r3, r2
 8003342:	613b      	str	r3, [r7, #16]
 8003344:	683b      	ldr	r3, [r7, #0]
 8003346:	689b      	ldr	r3, [r3, #8]
 8003348:	031b      	lsls	r3, r3, #12
 800334a:	693a      	ldr	r2, [r7, #16]
 800334c:	4313      	orrs	r3, r2
 800334e:	613b      	str	r3, [r7, #16]
 8003350:	687b      	ldr	r3, [r7, #4]
 8003352:	4a19      	ldr	r2, [pc, #100]	; (80033b8 <TIM_OC4_SetConfig+0xc0>)
 8003354:	4293      	cmp	r3, r2
 8003356:	d00b      	beq.n	8003370 <TIM_OC4_SetConfig+0x78>
 8003358:	687b      	ldr	r3, [r7, #4]
 800335a:	4a18      	ldr	r2, [pc, #96]	; (80033bc <TIM_OC4_SetConfig+0xc4>)
 800335c:	4293      	cmp	r3, r2
 800335e:	d007      	beq.n	8003370 <TIM_OC4_SetConfig+0x78>
 8003360:	687b      	ldr	r3, [r7, #4]
 8003362:	4a17      	ldr	r2, [pc, #92]	; (80033c0 <TIM_OC4_SetConfig+0xc8>)
 8003364:	4293      	cmp	r3, r2
 8003366:	d003      	beq.n	8003370 <TIM_OC4_SetConfig+0x78>
 8003368:	687b      	ldr	r3, [r7, #4]
 800336a:	4a16      	ldr	r2, [pc, #88]	; (80033c4 <TIM_OC4_SetConfig+0xcc>)
 800336c:	4293      	cmp	r3, r2
 800336e:	d109      	bne.n	8003384 <TIM_OC4_SetConfig+0x8c>
 8003370:	697b      	ldr	r3, [r7, #20]
 8003372:	4a15      	ldr	r2, [pc, #84]	; (80033c8 <TIM_OC4_SetConfig+0xd0>)
 8003374:	4013      	ands	r3, r2
 8003376:	617b      	str	r3, [r7, #20]
 8003378:	683b      	ldr	r3, [r7, #0]
 800337a:	695b      	ldr	r3, [r3, #20]
 800337c:	019b      	lsls	r3, r3, #6
 800337e:	697a      	ldr	r2, [r7, #20]
 8003380:	4313      	orrs	r3, r2
 8003382:	617b      	str	r3, [r7, #20]
 8003384:	687b      	ldr	r3, [r7, #4]
 8003386:	697a      	ldr	r2, [r7, #20]
 8003388:	605a      	str	r2, [r3, #4]
 800338a:	687b      	ldr	r3, [r7, #4]
 800338c:	68fa      	ldr	r2, [r7, #12]
 800338e:	61da      	str	r2, [r3, #28]
 8003390:	683b      	ldr	r3, [r7, #0]
 8003392:	685a      	ldr	r2, [r3, #4]
 8003394:	687b      	ldr	r3, [r7, #4]
 8003396:	641a      	str	r2, [r3, #64]	; 0x40
 8003398:	687b      	ldr	r3, [r7, #4]
 800339a:	693a      	ldr	r2, [r7, #16]
 800339c:	621a      	str	r2, [r3, #32]
 800339e:	46c0      	nop			; (mov r8, r8)
 80033a0:	46bd      	mov	sp, r7
 80033a2:	b006      	add	sp, #24
 80033a4:	bd80      	pop	{r7, pc}
 80033a6:	46c0      	nop			; (mov r8, r8)
 80033a8:	ffffefff 	.word	0xffffefff
 80033ac:	ffff8fff 	.word	0xffff8fff
 80033b0:	fffffcff 	.word	0xfffffcff
 80033b4:	ffffdfff 	.word	0xffffdfff
 80033b8:	40012c00 	.word	0x40012c00
 80033bc:	40014000 	.word	0x40014000
 80033c0:	40014400 	.word	0x40014400
 80033c4:	40014800 	.word	0x40014800
 80033c8:	ffffbfff 	.word	0xffffbfff

080033cc <TIM_TI1_ConfigInputStage>:
 80033cc:	b580      	push	{r7, lr}
 80033ce:	b086      	sub	sp, #24
 80033d0:	af00      	add	r7, sp, #0
 80033d2:	60f8      	str	r0, [r7, #12]
 80033d4:	60b9      	str	r1, [r7, #8]
 80033d6:	607a      	str	r2, [r7, #4]
 80033d8:	68fb      	ldr	r3, [r7, #12]
 80033da:	6a1b      	ldr	r3, [r3, #32]
 80033dc:	617b      	str	r3, [r7, #20]
 80033de:	68fb      	ldr	r3, [r7, #12]
 80033e0:	6a1b      	ldr	r3, [r3, #32]
 80033e2:	2201      	movs	r2, #1
 80033e4:	4393      	bics	r3, r2
 80033e6:	001a      	movs	r2, r3
 80033e8:	68fb      	ldr	r3, [r7, #12]
 80033ea:	621a      	str	r2, [r3, #32]
 80033ec:	68fb      	ldr	r3, [r7, #12]
 80033ee:	699b      	ldr	r3, [r3, #24]
 80033f0:	613b      	str	r3, [r7, #16]
 80033f2:	693b      	ldr	r3, [r7, #16]
 80033f4:	22f0      	movs	r2, #240	; 0xf0
 80033f6:	4393      	bics	r3, r2
 80033f8:	613b      	str	r3, [r7, #16]
 80033fa:	687b      	ldr	r3, [r7, #4]
 80033fc:	011b      	lsls	r3, r3, #4
 80033fe:	693a      	ldr	r2, [r7, #16]
 8003400:	4313      	orrs	r3, r2
 8003402:	613b      	str	r3, [r7, #16]
 8003404:	697b      	ldr	r3, [r7, #20]
 8003406:	220a      	movs	r2, #10
 8003408:	4393      	bics	r3, r2
 800340a:	617b      	str	r3, [r7, #20]
 800340c:	697a      	ldr	r2, [r7, #20]
 800340e:	68bb      	ldr	r3, [r7, #8]
 8003410:	4313      	orrs	r3, r2
 8003412:	617b      	str	r3, [r7, #20]
 8003414:	68fb      	ldr	r3, [r7, #12]
 8003416:	693a      	ldr	r2, [r7, #16]
 8003418:	619a      	str	r2, [r3, #24]
 800341a:	68fb      	ldr	r3, [r7, #12]
 800341c:	697a      	ldr	r2, [r7, #20]
 800341e:	621a      	str	r2, [r3, #32]
 8003420:	46c0      	nop			; (mov r8, r8)
 8003422:	46bd      	mov	sp, r7
 8003424:	b006      	add	sp, #24
 8003426:	bd80      	pop	{r7, pc}

08003428 <TIM_TI2_ConfigInputStage>:
 8003428:	b580      	push	{r7, lr}
 800342a:	b086      	sub	sp, #24
 800342c:	af00      	add	r7, sp, #0
 800342e:	60f8      	str	r0, [r7, #12]
 8003430:	60b9      	str	r1, [r7, #8]
 8003432:	607a      	str	r2, [r7, #4]
 8003434:	68fb      	ldr	r3, [r7, #12]
 8003436:	6a1b      	ldr	r3, [r3, #32]
 8003438:	2210      	movs	r2, #16
 800343a:	4393      	bics	r3, r2
 800343c:	001a      	movs	r2, r3
 800343e:	68fb      	ldr	r3, [r7, #12]
 8003440:	621a      	str	r2, [r3, #32]
 8003442:	68fb      	ldr	r3, [r7, #12]
 8003444:	699b      	ldr	r3, [r3, #24]
 8003446:	617b      	str	r3, [r7, #20]
 8003448:	68fb      	ldr	r3, [r7, #12]
 800344a:	6a1b      	ldr	r3, [r3, #32]
 800344c:	613b      	str	r3, [r7, #16]
 800344e:	697b      	ldr	r3, [r7, #20]
 8003450:	4a0d      	ldr	r2, [pc, #52]	; (8003488 <TIM_TI2_ConfigInputStage+0x60>)
 8003452:	4013      	ands	r3, r2
 8003454:	617b      	str	r3, [r7, #20]
 8003456:	687b      	ldr	r3, [r7, #4]
 8003458:	031b      	lsls	r3, r3, #12
 800345a:	697a      	ldr	r2, [r7, #20]
 800345c:	4313      	orrs	r3, r2
 800345e:	617b      	str	r3, [r7, #20]
 8003460:	693b      	ldr	r3, [r7, #16]
 8003462:	22a0      	movs	r2, #160	; 0xa0
 8003464:	4393      	bics	r3, r2
 8003466:	613b      	str	r3, [r7, #16]
 8003468:	68bb      	ldr	r3, [r7, #8]
 800346a:	011b      	lsls	r3, r3, #4
 800346c:	693a      	ldr	r2, [r7, #16]
 800346e:	4313      	orrs	r3, r2
 8003470:	613b      	str	r3, [r7, #16]
 8003472:	68fb      	ldr	r3, [r7, #12]
 8003474:	697a      	ldr	r2, [r7, #20]
 8003476:	619a      	str	r2, [r3, #24]
 8003478:	68fb      	ldr	r3, [r7, #12]
 800347a:	693a      	ldr	r2, [r7, #16]
 800347c:	621a      	str	r2, [r3, #32]
 800347e:	46c0      	nop			; (mov r8, r8)
 8003480:	46bd      	mov	sp, r7
 8003482:	b006      	add	sp, #24
 8003484:	bd80      	pop	{r7, pc}
 8003486:	46c0      	nop			; (mov r8, r8)
 8003488:	ffff0fff 	.word	0xffff0fff

0800348c <TIM_ITRx_SetConfig>:
 800348c:	b580      	push	{r7, lr}
 800348e:	b084      	sub	sp, #16
 8003490:	af00      	add	r7, sp, #0
 8003492:	6078      	str	r0, [r7, #4]
 8003494:	6039      	str	r1, [r7, #0]
 8003496:	687b      	ldr	r3, [r7, #4]
 8003498:	689b      	ldr	r3, [r3, #8]
 800349a:	60fb      	str	r3, [r7, #12]
 800349c:	68fb      	ldr	r3, [r7, #12]
 800349e:	2270      	movs	r2, #112	; 0x70
 80034a0:	4393      	bics	r3, r2
 80034a2:	60fb      	str	r3, [r7, #12]
 80034a4:	683a      	ldr	r2, [r7, #0]
 80034a6:	68fb      	ldr	r3, [r7, #12]
 80034a8:	4313      	orrs	r3, r2
 80034aa:	2207      	movs	r2, #7
 80034ac:	4313      	orrs	r3, r2
 80034ae:	60fb      	str	r3, [r7, #12]
 80034b0:	687b      	ldr	r3, [r7, #4]
 80034b2:	68fa      	ldr	r2, [r7, #12]
 80034b4:	609a      	str	r2, [r3, #8]
 80034b6:	46c0      	nop			; (mov r8, r8)
 80034b8:	46bd      	mov	sp, r7
 80034ba:	b004      	add	sp, #16
 80034bc:	bd80      	pop	{r7, pc}
	...

080034c0 <TIM_ETR_SetConfig>:
 80034c0:	b580      	push	{r7, lr}
 80034c2:	b086      	sub	sp, #24
 80034c4:	af00      	add	r7, sp, #0
 80034c6:	60f8      	str	r0, [r7, #12]
 80034c8:	60b9      	str	r1, [r7, #8]
 80034ca:	607a      	str	r2, [r7, #4]
 80034cc:	603b      	str	r3, [r7, #0]
 80034ce:	68fb      	ldr	r3, [r7, #12]
 80034d0:	689b      	ldr	r3, [r3, #8]
 80034d2:	617b      	str	r3, [r7, #20]
 80034d4:	697b      	ldr	r3, [r7, #20]
 80034d6:	4a09      	ldr	r2, [pc, #36]	; (80034fc <TIM_ETR_SetConfig+0x3c>)
 80034d8:	4013      	ands	r3, r2
 80034da:	617b      	str	r3, [r7, #20]
 80034dc:	683b      	ldr	r3, [r7, #0]
 80034de:	021a      	lsls	r2, r3, #8
 80034e0:	687b      	ldr	r3, [r7, #4]
 80034e2:	431a      	orrs	r2, r3
 80034e4:	68bb      	ldr	r3, [r7, #8]
 80034e6:	4313      	orrs	r3, r2
 80034e8:	697a      	ldr	r2, [r7, #20]
 80034ea:	4313      	orrs	r3, r2
 80034ec:	617b      	str	r3, [r7, #20]
 80034ee:	68fb      	ldr	r3, [r7, #12]
 80034f0:	697a      	ldr	r2, [r7, #20]
 80034f2:	609a      	str	r2, [r3, #8]
 80034f4:	46c0      	nop			; (mov r8, r8)
 80034f6:	46bd      	mov	sp, r7
 80034f8:	b006      	add	sp, #24
 80034fa:	bd80      	pop	{r7, pc}
 80034fc:	ffff00ff 	.word	0xffff00ff

08003500 <TIM_CCxChannelCmd>:
 8003500:	b580      	push	{r7, lr}
 8003502:	b086      	sub	sp, #24
 8003504:	af00      	add	r7, sp, #0
 8003506:	60f8      	str	r0, [r7, #12]
 8003508:	60b9      	str	r1, [r7, #8]
 800350a:	607a      	str	r2, [r7, #4]
 800350c:	68bb      	ldr	r3, [r7, #8]
 800350e:	221f      	movs	r2, #31
 8003510:	4013      	ands	r3, r2
 8003512:	2201      	movs	r2, #1
 8003514:	409a      	lsls	r2, r3
 8003516:	0013      	movs	r3, r2
 8003518:	617b      	str	r3, [r7, #20]
 800351a:	68fb      	ldr	r3, [r7, #12]
 800351c:	6a1b      	ldr	r3, [r3, #32]
 800351e:	697a      	ldr	r2, [r7, #20]
 8003520:	43d2      	mvns	r2, r2
 8003522:	401a      	ands	r2, r3
 8003524:	68fb      	ldr	r3, [r7, #12]
 8003526:	621a      	str	r2, [r3, #32]
 8003528:	68fb      	ldr	r3, [r7, #12]
 800352a:	6a1a      	ldr	r2, [r3, #32]
 800352c:	68bb      	ldr	r3, [r7, #8]
 800352e:	211f      	movs	r1, #31
 8003530:	400b      	ands	r3, r1
 8003532:	6879      	ldr	r1, [r7, #4]
 8003534:	4099      	lsls	r1, r3
 8003536:	000b      	movs	r3, r1
 8003538:	431a      	orrs	r2, r3
 800353a:	68fb      	ldr	r3, [r7, #12]
 800353c:	621a      	str	r2, [r3, #32]
 800353e:	46c0      	nop			; (mov r8, r8)
 8003540:	46bd      	mov	sp, r7
 8003542:	b006      	add	sp, #24
 8003544:	bd80      	pop	{r7, pc}
	...

08003548 <HAL_TIMEx_MasterConfigSynchronization>:
 8003548:	b580      	push	{r7, lr}
 800354a:	b084      	sub	sp, #16
 800354c:	af00      	add	r7, sp, #0
 800354e:	6078      	str	r0, [r7, #4]
 8003550:	6039      	str	r1, [r7, #0]
 8003552:	687b      	ldr	r3, [r7, #4]
 8003554:	223c      	movs	r2, #60	; 0x3c
 8003556:	5c9b      	ldrb	r3, [r3, r2]
 8003558:	2b01      	cmp	r3, #1
 800355a:	d101      	bne.n	8003560 <HAL_TIMEx_MasterConfigSynchronization+0x18>
 800355c:	2302      	movs	r3, #2
 800355e:	e047      	b.n	80035f0 <HAL_TIMEx_MasterConfigSynchronization+0xa8>
 8003560:	687b      	ldr	r3, [r7, #4]
 8003562:	223c      	movs	r2, #60	; 0x3c
 8003564:	2101      	movs	r1, #1
 8003566:	5499      	strb	r1, [r3, r2]
 8003568:	687b      	ldr	r3, [r7, #4]
 800356a:	223d      	movs	r2, #61	; 0x3d
 800356c:	2102      	movs	r1, #2
 800356e:	5499      	strb	r1, [r3, r2]
 8003570:	687b      	ldr	r3, [r7, #4]
 8003572:	681b      	ldr	r3, [r3, #0]
 8003574:	685b      	ldr	r3, [r3, #4]
 8003576:	60fb      	str	r3, [r7, #12]
 8003578:	687b      	ldr	r3, [r7, #4]
 800357a:	681b      	ldr	r3, [r3, #0]
 800357c:	689b      	ldr	r3, [r3, #8]
 800357e:	60bb      	str	r3, [r7, #8]
 8003580:	68fb      	ldr	r3, [r7, #12]
 8003582:	2270      	movs	r2, #112	; 0x70
 8003584:	4393      	bics	r3, r2
 8003586:	60fb      	str	r3, [r7, #12]
 8003588:	683b      	ldr	r3, [r7, #0]
 800358a:	681b      	ldr	r3, [r3, #0]
 800358c:	68fa      	ldr	r2, [r7, #12]
 800358e:	4313      	orrs	r3, r2
 8003590:	60fb      	str	r3, [r7, #12]
 8003592:	687b      	ldr	r3, [r7, #4]
 8003594:	681b      	ldr	r3, [r3, #0]
 8003596:	68fa      	ldr	r2, [r7, #12]
 8003598:	605a      	str	r2, [r3, #4]
 800359a:	687b      	ldr	r3, [r7, #4]
 800359c:	681b      	ldr	r3, [r3, #0]
 800359e:	4a16      	ldr	r2, [pc, #88]	; (80035f8 <HAL_TIMEx_MasterConfigSynchronization+0xb0>)
 80035a0:	4293      	cmp	r3, r2
 80035a2:	d00f      	beq.n	80035c4 <HAL_TIMEx_MasterConfigSynchronization+0x7c>
 80035a4:	687b      	ldr	r3, [r7, #4]
 80035a6:	681a      	ldr	r2, [r3, #0]
 80035a8:	2380      	movs	r3, #128	; 0x80
 80035aa:	05db      	lsls	r3, r3, #23
 80035ac:	429a      	cmp	r2, r3
 80035ae:	d009      	beq.n	80035c4 <HAL_TIMEx_MasterConfigSynchronization+0x7c>
 80035b0:	687b      	ldr	r3, [r7, #4]
 80035b2:	681b      	ldr	r3, [r3, #0]
 80035b4:	4a11      	ldr	r2, [pc, #68]	; (80035fc <HAL_TIMEx_MasterConfigSynchronization+0xb4>)
 80035b6:	4293      	cmp	r3, r2
 80035b8:	d004      	beq.n	80035c4 <HAL_TIMEx_MasterConfigSynchronization+0x7c>
 80035ba:	687b      	ldr	r3, [r7, #4]
 80035bc:	681b      	ldr	r3, [r3, #0]
 80035be:	4a10      	ldr	r2, [pc, #64]	; (8003600 <HAL_TIMEx_MasterConfigSynchronization+0xb8>)
 80035c0:	4293      	cmp	r3, r2
 80035c2:	d10c      	bne.n	80035de <HAL_TIMEx_MasterConfigSynchronization+0x96>
 80035c4:	68bb      	ldr	r3, [r7, #8]
 80035c6:	2280      	movs	r2, #128	; 0x80
 80035c8:	4393      	bics	r3, r2
 80035ca:	60bb      	str	r3, [r7, #8]
 80035cc:	683b      	ldr	r3, [r7, #0]
 80035ce:	685b      	ldr	r3, [r3, #4]
 80035d0:	68ba      	ldr	r2, [r7, #8]
 80035d2:	4313      	orrs	r3, r2
 80035d4:	60bb      	str	r3, [r7, #8]
 80035d6:	687b      	ldr	r3, [r7, #4]
 80035d8:	681b      	ldr	r3, [r3, #0]
 80035da:	68ba      	ldr	r2, [r7, #8]
 80035dc:	609a      	str	r2, [r3, #8]
 80035de:	687b      	ldr	r3, [r7, #4]
 80035e0:	223d      	movs	r2, #61	; 0x3d
 80035e2:	2101      	movs	r1, #1
 80035e4:	5499      	strb	r1, [r3, r2]
 80035e6:	687b      	ldr	r3, [r7, #4]
 80035e8:	223c      	movs	r2, #60	; 0x3c
 80035ea:	2100      	movs	r1, #0
 80035ec:	5499      	strb	r1, [r3, r2]
 80035ee:	2300      	movs	r3, #0
 80035f0:	0018      	movs	r0, r3
 80035f2:	46bd      	mov	sp, r7
 80035f4:	b004      	add	sp, #16
 80035f6:	bd80      	pop	{r7, pc}
 80035f8:	40012c00 	.word	0x40012c00
 80035fc:	40000400 	.word	0x40000400
 8003600:	40014000 	.word	0x40014000

08003604 <HAL_UART_Init>:
 8003604:	b580      	push	{r7, lr}
 8003606:	b082      	sub	sp, #8
 8003608:	af00      	add	r7, sp, #0
 800360a:	6078      	str	r0, [r7, #4]
 800360c:	687b      	ldr	r3, [r7, #4]
 800360e:	2b00      	cmp	r3, #0
 8003610:	d101      	bne.n	8003616 <HAL_UART_Init+0x12>
 8003612:	2301      	movs	r3, #1
 8003614:	e044      	b.n	80036a0 <HAL_UART_Init+0x9c>
 8003616:	687b      	ldr	r3, [r7, #4]
 8003618:	6f9b      	ldr	r3, [r3, #120]	; 0x78
 800361a:	2b00      	cmp	r3, #0
 800361c:	d107      	bne.n	800362e <HAL_UART_Init+0x2a>
 800361e:	687b      	ldr	r3, [r7, #4]
 8003620:	2274      	movs	r2, #116	; 0x74
 8003622:	2100      	movs	r1, #0
 8003624:	5499      	strb	r1, [r3, r2]
 8003626:	687b      	ldr	r3, [r7, #4]
 8003628:	0018      	movs	r0, r3
 800362a:	f7fd f9c7 	bl	80009bc <HAL_UART_MspInit>
 800362e:	687b      	ldr	r3, [r7, #4]
 8003630:	2224      	movs	r2, #36	; 0x24
 8003632:	679a      	str	r2, [r3, #120]	; 0x78
 8003634:	687b      	ldr	r3, [r7, #4]
 8003636:	681b      	ldr	r3, [r3, #0]
 8003638:	681a      	ldr	r2, [r3, #0]
 800363a:	687b      	ldr	r3, [r7, #4]
 800363c:	681b      	ldr	r3, [r3, #0]
 800363e:	2101      	movs	r1, #1
 8003640:	438a      	bics	r2, r1
 8003642:	601a      	str	r2, [r3, #0]
 8003644:	687b      	ldr	r3, [r7, #4]
 8003646:	0018      	movs	r0, r3
 8003648:	f000 fbce 	bl	8003de8 <UART_SetConfig>
 800364c:	0003      	movs	r3, r0
 800364e:	2b01      	cmp	r3, #1
 8003650:	d101      	bne.n	8003656 <HAL_UART_Init+0x52>
 8003652:	2301      	movs	r3, #1
 8003654:	e024      	b.n	80036a0 <HAL_UART_Init+0x9c>
 8003656:	687b      	ldr	r3, [r7, #4]
 8003658:	6a5b      	ldr	r3, [r3, #36]	; 0x24
 800365a:	2b00      	cmp	r3, #0
 800365c:	d003      	beq.n	8003666 <HAL_UART_Init+0x62>
 800365e:	687b      	ldr	r3, [r7, #4]
 8003660:	0018      	movs	r0, r3
 8003662:	f000 fd01 	bl	8004068 <UART_AdvFeatureConfig>
 8003666:	687b      	ldr	r3, [r7, #4]
 8003668:	681b      	ldr	r3, [r3, #0]
 800366a:	685a      	ldr	r2, [r3, #4]
 800366c:	687b      	ldr	r3, [r7, #4]
 800366e:	681b      	ldr	r3, [r3, #0]
 8003670:	490d      	ldr	r1, [pc, #52]	; (80036a8 <HAL_UART_Init+0xa4>)
 8003672:	400a      	ands	r2, r1
 8003674:	605a      	str	r2, [r3, #4]
 8003676:	687b      	ldr	r3, [r7, #4]
 8003678:	681b      	ldr	r3, [r3, #0]
 800367a:	689a      	ldr	r2, [r3, #8]
 800367c:	687b      	ldr	r3, [r7, #4]
 800367e:	681b      	ldr	r3, [r3, #0]
 8003680:	212a      	movs	r1, #42	; 0x2a
 8003682:	438a      	bics	r2, r1
 8003684:	609a      	str	r2, [r3, #8]
 8003686:	687b      	ldr	r3, [r7, #4]
 8003688:	681b      	ldr	r3, [r3, #0]
 800368a:	681a      	ldr	r2, [r3, #0]
 800368c:	687b      	ldr	r3, [r7, #4]
 800368e:	681b      	ldr	r3, [r3, #0]
 8003690:	2101      	movs	r1, #1
 8003692:	430a      	orrs	r2, r1
 8003694:	601a      	str	r2, [r3, #0]
 8003696:	687b      	ldr	r3, [r7, #4]
 8003698:	0018      	movs	r0, r3
 800369a:	f000 fd99 	bl	80041d0 <UART_CheckIdleState>
 800369e:	0003      	movs	r3, r0
 80036a0:	0018      	movs	r0, r3
 80036a2:	46bd      	mov	sp, r7
 80036a4:	b002      	add	sp, #8
 80036a6:	bd80      	pop	{r7, pc}
 80036a8:	ffffb7ff 	.word	0xffffb7ff

080036ac <HAL_UART_Transmit>:
 80036ac:	b580      	push	{r7, lr}
 80036ae:	b08a      	sub	sp, #40	; 0x28
 80036b0:	af02      	add	r7, sp, #8
 80036b2:	60f8      	str	r0, [r7, #12]
 80036b4:	60b9      	str	r1, [r7, #8]
 80036b6:	603b      	str	r3, [r7, #0]
 80036b8:	1dbb      	adds	r3, r7, #6
 80036ba:	801a      	strh	r2, [r3, #0]
 80036bc:	68fb      	ldr	r3, [r7, #12]
 80036be:	6f9b      	ldr	r3, [r3, #120]	; 0x78
 80036c0:	2b20      	cmp	r3, #32
 80036c2:	d000      	beq.n	80036c6 <HAL_UART_Transmit+0x1a>
 80036c4:	e096      	b.n	80037f4 <HAL_UART_Transmit+0x148>
 80036c6:	68bb      	ldr	r3, [r7, #8]
 80036c8:	2b00      	cmp	r3, #0
 80036ca:	d003      	beq.n	80036d4 <HAL_UART_Transmit+0x28>
 80036cc:	1dbb      	adds	r3, r7, #6
 80036ce:	881b      	ldrh	r3, [r3, #0]
 80036d0:	2b00      	cmp	r3, #0
 80036d2:	d101      	bne.n	80036d8 <HAL_UART_Transmit+0x2c>
 80036d4:	2301      	movs	r3, #1
 80036d6:	e08e      	b.n	80037f6 <HAL_UART_Transmit+0x14a>
 80036d8:	68fb      	ldr	r3, [r7, #12]
 80036da:	689a      	ldr	r2, [r3, #8]
 80036dc:	2380      	movs	r3, #128	; 0x80
 80036de:	015b      	lsls	r3, r3, #5
 80036e0:	429a      	cmp	r2, r3
 80036e2:	d109      	bne.n	80036f8 <HAL_UART_Transmit+0x4c>
 80036e4:	68fb      	ldr	r3, [r7, #12]
 80036e6:	691b      	ldr	r3, [r3, #16]
 80036e8:	2b00      	cmp	r3, #0
 80036ea:	d105      	bne.n	80036f8 <HAL_UART_Transmit+0x4c>
 80036ec:	68bb      	ldr	r3, [r7, #8]
 80036ee:	2201      	movs	r2, #1
 80036f0:	4013      	ands	r3, r2
 80036f2:	d001      	beq.n	80036f8 <HAL_UART_Transmit+0x4c>
 80036f4:	2301      	movs	r3, #1
 80036f6:	e07e      	b.n	80037f6 <HAL_UART_Transmit+0x14a>
 80036f8:	68fb      	ldr	r3, [r7, #12]
 80036fa:	2274      	movs	r2, #116	; 0x74
 80036fc:	5c9b      	ldrb	r3, [r3, r2]
 80036fe:	2b01      	cmp	r3, #1
 8003700:	d101      	bne.n	8003706 <HAL_UART_Transmit+0x5a>
 8003702:	2302      	movs	r3, #2
 8003704:	e077      	b.n	80037f6 <HAL_UART_Transmit+0x14a>
 8003706:	68fb      	ldr	r3, [r7, #12]
 8003708:	2274      	movs	r2, #116	; 0x74
 800370a:	2101      	movs	r1, #1
 800370c:	5499      	strb	r1, [r3, r2]
 800370e:	68fb      	ldr	r3, [r7, #12]
 8003710:	2280      	movs	r2, #128	; 0x80
 8003712:	2100      	movs	r1, #0
 8003714:	5099      	str	r1, [r3, r2]
 8003716:	68fb      	ldr	r3, [r7, #12]
 8003718:	2221      	movs	r2, #33	; 0x21
 800371a:	679a      	str	r2, [r3, #120]	; 0x78
 800371c:	f7fd fad4 	bl	8000cc8 <HAL_GetTick>
 8003720:	0003      	movs	r3, r0
 8003722:	617b      	str	r3, [r7, #20]
 8003724:	68fb      	ldr	r3, [r7, #12]
 8003726:	1dba      	adds	r2, r7, #6
 8003728:	2150      	movs	r1, #80	; 0x50
 800372a:	8812      	ldrh	r2, [r2, #0]
 800372c:	525a      	strh	r2, [r3, r1]
 800372e:	68fb      	ldr	r3, [r7, #12]
 8003730:	1dba      	adds	r2, r7, #6
 8003732:	2152      	movs	r1, #82	; 0x52
 8003734:	8812      	ldrh	r2, [r2, #0]
 8003736:	525a      	strh	r2, [r3, r1]
 8003738:	68fb      	ldr	r3, [r7, #12]
 800373a:	689a      	ldr	r2, [r3, #8]
 800373c:	2380      	movs	r3, #128	; 0x80
 800373e:	015b      	lsls	r3, r3, #5
 8003740:	429a      	cmp	r2, r3
 8003742:	d108      	bne.n	8003756 <HAL_UART_Transmit+0xaa>
 8003744:	68fb      	ldr	r3, [r7, #12]
 8003746:	691b      	ldr	r3, [r3, #16]
 8003748:	2b00      	cmp	r3, #0
 800374a:	d104      	bne.n	8003756 <HAL_UART_Transmit+0xaa>
 800374c:	2300      	movs	r3, #0
 800374e:	61fb      	str	r3, [r7, #28]
 8003750:	68bb      	ldr	r3, [r7, #8]
 8003752:	61bb      	str	r3, [r7, #24]
 8003754:	e003      	b.n	800375e <HAL_UART_Transmit+0xb2>
 8003756:	68bb      	ldr	r3, [r7, #8]
 8003758:	61fb      	str	r3, [r7, #28]
 800375a:	2300      	movs	r3, #0
 800375c:	61bb      	str	r3, [r7, #24]
 800375e:	68fb      	ldr	r3, [r7, #12]
 8003760:	2274      	movs	r2, #116	; 0x74
 8003762:	2100      	movs	r1, #0
 8003764:	5499      	strb	r1, [r3, r2]
 8003766:	e02d      	b.n	80037c4 <HAL_UART_Transmit+0x118>
 8003768:	697a      	ldr	r2, [r7, #20]
 800376a:	68f8      	ldr	r0, [r7, #12]
 800376c:	683b      	ldr	r3, [r7, #0]
 800376e:	9300      	str	r3, [sp, #0]
 8003770:	0013      	movs	r3, r2
 8003772:	2200      	movs	r2, #0
 8003774:	2180      	movs	r1, #128	; 0x80
 8003776:	f000 fd73 	bl	8004260 <UART_WaitOnFlagUntilTimeout>
 800377a:	1e03      	subs	r3, r0, #0
 800377c:	d001      	beq.n	8003782 <HAL_UART_Transmit+0xd6>
 800377e:	2303      	movs	r3, #3
 8003780:	e039      	b.n	80037f6 <HAL_UART_Transmit+0x14a>
 8003782:	69fb      	ldr	r3, [r7, #28]
 8003784:	2b00      	cmp	r3, #0
 8003786:	d10b      	bne.n	80037a0 <HAL_UART_Transmit+0xf4>
 8003788:	69bb      	ldr	r3, [r7, #24]
 800378a:	881a      	ldrh	r2, [r3, #0]
 800378c:	68fb      	ldr	r3, [r7, #12]
 800378e:	681b      	ldr	r3, [r3, #0]
 8003790:	05d2      	lsls	r2, r2, #23
 8003792:	0dd2      	lsrs	r2, r2, #23
 8003794:	b292      	uxth	r2, r2
 8003796:	851a      	strh	r2, [r3, #40]	; 0x28
 8003798:	69bb      	ldr	r3, [r7, #24]
 800379a:	3302      	adds	r3, #2
 800379c:	61bb      	str	r3, [r7, #24]
 800379e:	e008      	b.n	80037b2 <HAL_UART_Transmit+0x106>
 80037a0:	69fb      	ldr	r3, [r7, #28]
 80037a2:	781a      	ldrb	r2, [r3, #0]
 80037a4:	68fb      	ldr	r3, [r7, #12]
 80037a6:	681b      	ldr	r3, [r3, #0]
 80037a8:	b292      	uxth	r2, r2
 80037aa:	851a      	strh	r2, [r3, #40]	; 0x28
 80037ac:	69fb      	ldr	r3, [r7, #28]
 80037ae:	3301      	adds	r3, #1
 80037b0:	61fb      	str	r3, [r7, #28]
 80037b2:	68fb      	ldr	r3, [r7, #12]
 80037b4:	2252      	movs	r2, #82	; 0x52
 80037b6:	5a9b      	ldrh	r3, [r3, r2]
 80037b8:	b29b      	uxth	r3, r3
 80037ba:	3b01      	subs	r3, #1
 80037bc:	b299      	uxth	r1, r3
 80037be:	68fb      	ldr	r3, [r7, #12]
 80037c0:	2252      	movs	r2, #82	; 0x52
 80037c2:	5299      	strh	r1, [r3, r2]
 80037c4:	68fb      	ldr	r3, [r7, #12]
 80037c6:	2252      	movs	r2, #82	; 0x52
 80037c8:	5a9b      	ldrh	r3, [r3, r2]
 80037ca:	b29b      	uxth	r3, r3
 80037cc:	2b00      	cmp	r3, #0
 80037ce:	d1cb      	bne.n	8003768 <HAL_UART_Transmit+0xbc>
 80037d0:	697a      	ldr	r2, [r7, #20]
 80037d2:	68f8      	ldr	r0, [r7, #12]
 80037d4:	683b      	ldr	r3, [r7, #0]
 80037d6:	9300      	str	r3, [sp, #0]
 80037d8:	0013      	movs	r3, r2
 80037da:	2200      	movs	r2, #0
 80037dc:	2140      	movs	r1, #64	; 0x40
 80037de:	f000 fd3f 	bl	8004260 <UART_WaitOnFlagUntilTimeout>
 80037e2:	1e03      	subs	r3, r0, #0
 80037e4:	d001      	beq.n	80037ea <HAL_UART_Transmit+0x13e>
 80037e6:	2303      	movs	r3, #3
 80037e8:	e005      	b.n	80037f6 <HAL_UART_Transmit+0x14a>
 80037ea:	68fb      	ldr	r3, [r7, #12]
 80037ec:	2220      	movs	r2, #32
 80037ee:	679a      	str	r2, [r3, #120]	; 0x78
 80037f0:	2300      	movs	r3, #0
 80037f2:	e000      	b.n	80037f6 <HAL_UART_Transmit+0x14a>
 80037f4:	2302      	movs	r3, #2
 80037f6:	0018      	movs	r0, r3
 80037f8:	46bd      	mov	sp, r7
 80037fa:	b008      	add	sp, #32
 80037fc:	bd80      	pop	{r7, pc}
	...

08003800 <HAL_UART_IRQHandler>:
 8003800:	b590      	push	{r4, r7, lr}
 8003802:	b0ab      	sub	sp, #172	; 0xac
 8003804:	af00      	add	r7, sp, #0
 8003806:	6078      	str	r0, [r7, #4]
 8003808:	687b      	ldr	r3, [r7, #4]
 800380a:	681b      	ldr	r3, [r3, #0]
 800380c:	69db      	ldr	r3, [r3, #28]
 800380e:	22a4      	movs	r2, #164	; 0xa4
 8003810:	18b9      	adds	r1, r7, r2
 8003812:	600b      	str	r3, [r1, #0]
 8003814:	687b      	ldr	r3, [r7, #4]
 8003816:	681b      	ldr	r3, [r3, #0]
 8003818:	681b      	ldr	r3, [r3, #0]
 800381a:	20a0      	movs	r0, #160	; 0xa0
 800381c:	1839      	adds	r1, r7, r0
 800381e:	600b      	str	r3, [r1, #0]
 8003820:	687b      	ldr	r3, [r7, #4]
 8003822:	681b      	ldr	r3, [r3, #0]
 8003824:	689b      	ldr	r3, [r3, #8]
 8003826:	219c      	movs	r1, #156	; 0x9c
 8003828:	1879      	adds	r1, r7, r1
 800382a:	600b      	str	r3, [r1, #0]
 800382c:	0011      	movs	r1, r2
 800382e:	18bb      	adds	r3, r7, r2
 8003830:	681b      	ldr	r3, [r3, #0]
 8003832:	4a99      	ldr	r2, [pc, #612]	; (8003a98 <HAL_UART_IRQHandler+0x298>)
 8003834:	4013      	ands	r3, r2
 8003836:	2298      	movs	r2, #152	; 0x98
 8003838:	18bc      	adds	r4, r7, r2
 800383a:	6023      	str	r3, [r4, #0]
 800383c:	18bb      	adds	r3, r7, r2
 800383e:	681b      	ldr	r3, [r3, #0]
 8003840:	2b00      	cmp	r3, #0
 8003842:	d114      	bne.n	800386e <HAL_UART_IRQHandler+0x6e>
 8003844:	187b      	adds	r3, r7, r1
 8003846:	681b      	ldr	r3, [r3, #0]
 8003848:	2220      	movs	r2, #32
 800384a:	4013      	ands	r3, r2
 800384c:	d00f      	beq.n	800386e <HAL_UART_IRQHandler+0x6e>
 800384e:	183b      	adds	r3, r7, r0
 8003850:	681b      	ldr	r3, [r3, #0]
 8003852:	2220      	movs	r2, #32
 8003854:	4013      	ands	r3, r2
 8003856:	d00a      	beq.n	800386e <HAL_UART_IRQHandler+0x6e>
 8003858:	687b      	ldr	r3, [r7, #4]
 800385a:	6e5b      	ldr	r3, [r3, #100]	; 0x64
 800385c:	2b00      	cmp	r3, #0
 800385e:	d100      	bne.n	8003862 <HAL_UART_IRQHandler+0x62>
 8003860:	e296      	b.n	8003d90 <HAL_UART_IRQHandler+0x590>
 8003862:	687b      	ldr	r3, [r7, #4]
 8003864:	6e5b      	ldr	r3, [r3, #100]	; 0x64
 8003866:	687a      	ldr	r2, [r7, #4]
 8003868:	0010      	movs	r0, r2
 800386a:	4798      	blx	r3
 800386c:	e290      	b.n	8003d90 <HAL_UART_IRQHandler+0x590>
 800386e:	2398      	movs	r3, #152	; 0x98
 8003870:	18fb      	adds	r3, r7, r3
 8003872:	681b      	ldr	r3, [r3, #0]
 8003874:	2b00      	cmp	r3, #0
 8003876:	d100      	bne.n	800387a <HAL_UART_IRQHandler+0x7a>
 8003878:	e114      	b.n	8003aa4 <HAL_UART_IRQHandler+0x2a4>
 800387a:	239c      	movs	r3, #156	; 0x9c
 800387c:	18fb      	adds	r3, r7, r3
 800387e:	681b      	ldr	r3, [r3, #0]
 8003880:	2201      	movs	r2, #1
 8003882:	4013      	ands	r3, r2
 8003884:	d106      	bne.n	8003894 <HAL_UART_IRQHandler+0x94>
 8003886:	23a0      	movs	r3, #160	; 0xa0
 8003888:	18fb      	adds	r3, r7, r3
 800388a:	681b      	ldr	r3, [r3, #0]
 800388c:	4a83      	ldr	r2, [pc, #524]	; (8003a9c <HAL_UART_IRQHandler+0x29c>)
 800388e:	4013      	ands	r3, r2
 8003890:	d100      	bne.n	8003894 <HAL_UART_IRQHandler+0x94>
 8003892:	e107      	b.n	8003aa4 <HAL_UART_IRQHandler+0x2a4>
 8003894:	23a4      	movs	r3, #164	; 0xa4
 8003896:	18fb      	adds	r3, r7, r3
 8003898:	681b      	ldr	r3, [r3, #0]
 800389a:	2201      	movs	r2, #1
 800389c:	4013      	ands	r3, r2
 800389e:	d012      	beq.n	80038c6 <HAL_UART_IRQHandler+0xc6>
 80038a0:	23a0      	movs	r3, #160	; 0xa0
 80038a2:	18fb      	adds	r3, r7, r3
 80038a4:	681a      	ldr	r2, [r3, #0]
 80038a6:	2380      	movs	r3, #128	; 0x80
 80038a8:	005b      	lsls	r3, r3, #1
 80038aa:	4013      	ands	r3, r2
 80038ac:	d00b      	beq.n	80038c6 <HAL_UART_IRQHandler+0xc6>
 80038ae:	687b      	ldr	r3, [r7, #4]
 80038b0:	681b      	ldr	r3, [r3, #0]
 80038b2:	2201      	movs	r2, #1
 80038b4:	621a      	str	r2, [r3, #32]
 80038b6:	687b      	ldr	r3, [r7, #4]
 80038b8:	2280      	movs	r2, #128	; 0x80
 80038ba:	589b      	ldr	r3, [r3, r2]
 80038bc:	2201      	movs	r2, #1
 80038be:	431a      	orrs	r2, r3
 80038c0:	687b      	ldr	r3, [r7, #4]
 80038c2:	2180      	movs	r1, #128	; 0x80
 80038c4:	505a      	str	r2, [r3, r1]
 80038c6:	23a4      	movs	r3, #164	; 0xa4
 80038c8:	18fb      	adds	r3, r7, r3
 80038ca:	681b      	ldr	r3, [r3, #0]
 80038cc:	2202      	movs	r2, #2
 80038ce:	4013      	ands	r3, r2
 80038d0:	d011      	beq.n	80038f6 <HAL_UART_IRQHandler+0xf6>
 80038d2:	239c      	movs	r3, #156	; 0x9c
 80038d4:	18fb      	adds	r3, r7, r3
 80038d6:	681b      	ldr	r3, [r3, #0]
 80038d8:	2201      	movs	r2, #1
 80038da:	4013      	ands	r3, r2
 80038dc:	d00b      	beq.n	80038f6 <HAL_UART_IRQHandler+0xf6>
 80038de:	687b      	ldr	r3, [r7, #4]
 80038e0:	681b      	ldr	r3, [r3, #0]
 80038e2:	2202      	movs	r2, #2
 80038e4:	621a      	str	r2, [r3, #32]
 80038e6:	687b      	ldr	r3, [r7, #4]
 80038e8:	2280      	movs	r2, #128	; 0x80
 80038ea:	589b      	ldr	r3, [r3, r2]
 80038ec:	2204      	movs	r2, #4
 80038ee:	431a      	orrs	r2, r3
 80038f0:	687b      	ldr	r3, [r7, #4]
 80038f2:	2180      	movs	r1, #128	; 0x80
 80038f4:	505a      	str	r2, [r3, r1]
 80038f6:	23a4      	movs	r3, #164	; 0xa4
 80038f8:	18fb      	adds	r3, r7, r3
 80038fa:	681b      	ldr	r3, [r3, #0]
 80038fc:	2204      	movs	r2, #4
 80038fe:	4013      	ands	r3, r2
 8003900:	d011      	beq.n	8003926 <HAL_UART_IRQHandler+0x126>
 8003902:	239c      	movs	r3, #156	; 0x9c
 8003904:	18fb      	adds	r3, r7, r3
 8003906:	681b      	ldr	r3, [r3, #0]
 8003908:	2201      	movs	r2, #1
 800390a:	4013      	ands	r3, r2
 800390c:	d00b      	beq.n	8003926 <HAL_UART_IRQHandler+0x126>
 800390e:	687b      	ldr	r3, [r7, #4]
 8003910:	681b      	ldr	r3, [r3, #0]
 8003912:	2204      	movs	r2, #4
 8003914:	621a      	str	r2, [r3, #32]
 8003916:	687b      	ldr	r3, [r7, #4]
 8003918:	2280      	movs	r2, #128	; 0x80
 800391a:	589b      	ldr	r3, [r3, r2]
 800391c:	2202      	movs	r2, #2
 800391e:	431a      	orrs	r2, r3
 8003920:	687b      	ldr	r3, [r7, #4]
 8003922:	2180      	movs	r1, #128	; 0x80
 8003924:	505a      	str	r2, [r3, r1]
 8003926:	23a4      	movs	r3, #164	; 0xa4
 8003928:	18fb      	adds	r3, r7, r3
 800392a:	681b      	ldr	r3, [r3, #0]
 800392c:	2208      	movs	r2, #8
 800392e:	4013      	ands	r3, r2
 8003930:	d017      	beq.n	8003962 <HAL_UART_IRQHandler+0x162>
 8003932:	23a0      	movs	r3, #160	; 0xa0
 8003934:	18fb      	adds	r3, r7, r3
 8003936:	681b      	ldr	r3, [r3, #0]
 8003938:	2220      	movs	r2, #32
 800393a:	4013      	ands	r3, r2
 800393c:	d105      	bne.n	800394a <HAL_UART_IRQHandler+0x14a>
 800393e:	239c      	movs	r3, #156	; 0x9c
 8003940:	18fb      	adds	r3, r7, r3
 8003942:	681b      	ldr	r3, [r3, #0]
 8003944:	2201      	movs	r2, #1
 8003946:	4013      	ands	r3, r2
 8003948:	d00b      	beq.n	8003962 <HAL_UART_IRQHandler+0x162>
 800394a:	687b      	ldr	r3, [r7, #4]
 800394c:	681b      	ldr	r3, [r3, #0]
 800394e:	2208      	movs	r2, #8
 8003950:	621a      	str	r2, [r3, #32]
 8003952:	687b      	ldr	r3, [r7, #4]
 8003954:	2280      	movs	r2, #128	; 0x80
 8003956:	589b      	ldr	r3, [r3, r2]
 8003958:	2208      	movs	r2, #8
 800395a:	431a      	orrs	r2, r3
 800395c:	687b      	ldr	r3, [r7, #4]
 800395e:	2180      	movs	r1, #128	; 0x80
 8003960:	505a      	str	r2, [r3, r1]
 8003962:	23a4      	movs	r3, #164	; 0xa4
 8003964:	18fb      	adds	r3, r7, r3
 8003966:	681a      	ldr	r2, [r3, #0]
 8003968:	2380      	movs	r3, #128	; 0x80
 800396a:	011b      	lsls	r3, r3, #4
 800396c:	4013      	ands	r3, r2
 800396e:	d013      	beq.n	8003998 <HAL_UART_IRQHandler+0x198>
 8003970:	23a0      	movs	r3, #160	; 0xa0
 8003972:	18fb      	adds	r3, r7, r3
 8003974:	681a      	ldr	r2, [r3, #0]
 8003976:	2380      	movs	r3, #128	; 0x80
 8003978:	04db      	lsls	r3, r3, #19
 800397a:	4013      	ands	r3, r2
 800397c:	d00c      	beq.n	8003998 <HAL_UART_IRQHandler+0x198>
 800397e:	687b      	ldr	r3, [r7, #4]
 8003980:	681b      	ldr	r3, [r3, #0]
 8003982:	2280      	movs	r2, #128	; 0x80
 8003984:	0112      	lsls	r2, r2, #4
 8003986:	621a      	str	r2, [r3, #32]
 8003988:	687b      	ldr	r3, [r7, #4]
 800398a:	2280      	movs	r2, #128	; 0x80
 800398c:	589b      	ldr	r3, [r3, r2]
 800398e:	2220      	movs	r2, #32
 8003990:	431a      	orrs	r2, r3
 8003992:	687b      	ldr	r3, [r7, #4]
 8003994:	2180      	movs	r1, #128	; 0x80
 8003996:	505a      	str	r2, [r3, r1]
 8003998:	687b      	ldr	r3, [r7, #4]
 800399a:	2280      	movs	r2, #128	; 0x80
 800399c:	589b      	ldr	r3, [r3, r2]
 800399e:	2b00      	cmp	r3, #0
 80039a0:	d100      	bne.n	80039a4 <HAL_UART_IRQHandler+0x1a4>
 80039a2:	e1f7      	b.n	8003d94 <HAL_UART_IRQHandler+0x594>
 80039a4:	23a4      	movs	r3, #164	; 0xa4
 80039a6:	18fb      	adds	r3, r7, r3
 80039a8:	681b      	ldr	r3, [r3, #0]
 80039aa:	2220      	movs	r2, #32
 80039ac:	4013      	ands	r3, r2
 80039ae:	d00e      	beq.n	80039ce <HAL_UART_IRQHandler+0x1ce>
 80039b0:	23a0      	movs	r3, #160	; 0xa0
 80039b2:	18fb      	adds	r3, r7, r3
 80039b4:	681b      	ldr	r3, [r3, #0]
 80039b6:	2220      	movs	r2, #32
 80039b8:	4013      	ands	r3, r2
 80039ba:	d008      	beq.n	80039ce <HAL_UART_IRQHandler+0x1ce>
 80039bc:	687b      	ldr	r3, [r7, #4]
 80039be:	6e5b      	ldr	r3, [r3, #100]	; 0x64
 80039c0:	2b00      	cmp	r3, #0
 80039c2:	d004      	beq.n	80039ce <HAL_UART_IRQHandler+0x1ce>
 80039c4:	687b      	ldr	r3, [r7, #4]
 80039c6:	6e5b      	ldr	r3, [r3, #100]	; 0x64
 80039c8:	687a      	ldr	r2, [r7, #4]
 80039ca:	0010      	movs	r0, r2
 80039cc:	4798      	blx	r3
 80039ce:	687b      	ldr	r3, [r7, #4]
 80039d0:	2280      	movs	r2, #128	; 0x80
 80039d2:	589b      	ldr	r3, [r3, r2]
 80039d4:	2194      	movs	r1, #148	; 0x94
 80039d6:	187a      	adds	r2, r7, r1
 80039d8:	6013      	str	r3, [r2, #0]
 80039da:	687b      	ldr	r3, [r7, #4]
 80039dc:	681b      	ldr	r3, [r3, #0]
 80039de:	689b      	ldr	r3, [r3, #8]
 80039e0:	2240      	movs	r2, #64	; 0x40
 80039e2:	4013      	ands	r3, r2
 80039e4:	2b40      	cmp	r3, #64	; 0x40
 80039e6:	d004      	beq.n	80039f2 <HAL_UART_IRQHandler+0x1f2>
 80039e8:	187b      	adds	r3, r7, r1
 80039ea:	681b      	ldr	r3, [r3, #0]
 80039ec:	2228      	movs	r2, #40	; 0x28
 80039ee:	4013      	ands	r3, r2
 80039f0:	d047      	beq.n	8003a82 <HAL_UART_IRQHandler+0x282>
 80039f2:	687b      	ldr	r3, [r7, #4]
 80039f4:	0018      	movs	r0, r3
 80039f6:	f000 fcf7 	bl	80043e8 <UART_EndRxTransfer>
 80039fa:	687b      	ldr	r3, [r7, #4]
 80039fc:	681b      	ldr	r3, [r3, #0]
 80039fe:	689b      	ldr	r3, [r3, #8]
 8003a00:	2240      	movs	r2, #64	; 0x40
 8003a02:	4013      	ands	r3, r2
 8003a04:	2b40      	cmp	r3, #64	; 0x40
 8003a06:	d137      	bne.n	8003a78 <HAL_UART_IRQHandler+0x278>
 8003a08:	f3ef 8310 	mrs	r3, PRIMASK
 8003a0c:	663b      	str	r3, [r7, #96]	; 0x60
 8003a0e:	6e3b      	ldr	r3, [r7, #96]	; 0x60
 8003a10:	2090      	movs	r0, #144	; 0x90
 8003a12:	183a      	adds	r2, r7, r0
 8003a14:	6013      	str	r3, [r2, #0]
 8003a16:	2301      	movs	r3, #1
 8003a18:	667b      	str	r3, [r7, #100]	; 0x64
 8003a1a:	6e7b      	ldr	r3, [r7, #100]	; 0x64
 8003a1c:	f383 8810 	msr	PRIMASK, r3
 8003a20:	46c0      	nop			; (mov r8, r8)
 8003a22:	687b      	ldr	r3, [r7, #4]
 8003a24:	681b      	ldr	r3, [r3, #0]
 8003a26:	689a      	ldr	r2, [r3, #8]
 8003a28:	687b      	ldr	r3, [r7, #4]
 8003a2a:	681b      	ldr	r3, [r3, #0]
 8003a2c:	2140      	movs	r1, #64	; 0x40
 8003a2e:	438a      	bics	r2, r1
 8003a30:	609a      	str	r2, [r3, #8]
 8003a32:	183b      	adds	r3, r7, r0
 8003a34:	681b      	ldr	r3, [r3, #0]
 8003a36:	66bb      	str	r3, [r7, #104]	; 0x68
 8003a38:	6ebb      	ldr	r3, [r7, #104]	; 0x68
 8003a3a:	f383 8810 	msr	PRIMASK, r3
 8003a3e:	46c0      	nop			; (mov r8, r8)
 8003a40:	687b      	ldr	r3, [r7, #4]
 8003a42:	6f1b      	ldr	r3, [r3, #112]	; 0x70
 8003a44:	2b00      	cmp	r3, #0
 8003a46:	d012      	beq.n	8003a6e <HAL_UART_IRQHandler+0x26e>
 8003a48:	687b      	ldr	r3, [r7, #4]
 8003a4a:	6f1b      	ldr	r3, [r3, #112]	; 0x70
 8003a4c:	4a14      	ldr	r2, [pc, #80]	; (8003aa0 <HAL_UART_IRQHandler+0x2a0>)
 8003a4e:	635a      	str	r2, [r3, #52]	; 0x34
 8003a50:	687b      	ldr	r3, [r7, #4]
 8003a52:	6f1b      	ldr	r3, [r3, #112]	; 0x70
 8003a54:	0018      	movs	r0, r3
 8003a56:	f7fe f805 	bl	8001a64 <HAL_DMA_Abort_IT>
 8003a5a:	1e03      	subs	r3, r0, #0
 8003a5c:	d01a      	beq.n	8003a94 <HAL_UART_IRQHandler+0x294>
 8003a5e:	687b      	ldr	r3, [r7, #4]
 8003a60:	6f1b      	ldr	r3, [r3, #112]	; 0x70
 8003a62:	6b5a      	ldr	r2, [r3, #52]	; 0x34
 8003a64:	687b      	ldr	r3, [r7, #4]
 8003a66:	6f1b      	ldr	r3, [r3, #112]	; 0x70
 8003a68:	0018      	movs	r0, r3
 8003a6a:	4790      	blx	r2
 8003a6c:	e012      	b.n	8003a94 <HAL_UART_IRQHandler+0x294>
 8003a6e:	687b      	ldr	r3, [r7, #4]
 8003a70:	0018      	movs	r0, r3
 8003a72:	f000 f9a5 	bl	8003dc0 <HAL_UART_ErrorCallback>
 8003a76:	e00d      	b.n	8003a94 <HAL_UART_IRQHandler+0x294>
 8003a78:	687b      	ldr	r3, [r7, #4]
 8003a7a:	0018      	movs	r0, r3
 8003a7c:	f000 f9a0 	bl	8003dc0 <HAL_UART_ErrorCallback>
 8003a80:	e008      	b.n	8003a94 <HAL_UART_IRQHandler+0x294>
 8003a82:	687b      	ldr	r3, [r7, #4]
 8003a84:	0018      	movs	r0, r3
 8003a86:	f000 f99b 	bl	8003dc0 <HAL_UART_ErrorCallback>
 8003a8a:	687b      	ldr	r3, [r7, #4]
 8003a8c:	2280      	movs	r2, #128	; 0x80
 8003a8e:	2100      	movs	r1, #0
 8003a90:	5099      	str	r1, [r3, r2]
 8003a92:	e17f      	b.n	8003d94 <HAL_UART_IRQHandler+0x594>
 8003a94:	46c0      	nop			; (mov r8, r8)
 8003a96:	e17d      	b.n	8003d94 <HAL_UART_IRQHandler+0x594>
 8003a98:	0000080f 	.word	0x0000080f
 8003a9c:	04000120 	.word	0x04000120
 8003aa0:	080044ad 	.word	0x080044ad
 8003aa4:	687b      	ldr	r3, [r7, #4]
 8003aa6:	6e1b      	ldr	r3, [r3, #96]	; 0x60
 8003aa8:	2b01      	cmp	r3, #1
 8003aaa:	d000      	beq.n	8003aae <HAL_UART_IRQHandler+0x2ae>
 8003aac:	e131      	b.n	8003d12 <HAL_UART_IRQHandler+0x512>
 8003aae:	23a4      	movs	r3, #164	; 0xa4
 8003ab0:	18fb      	adds	r3, r7, r3
 8003ab2:	681b      	ldr	r3, [r3, #0]
 8003ab4:	2210      	movs	r2, #16
 8003ab6:	4013      	ands	r3, r2
 8003ab8:	d100      	bne.n	8003abc <HAL_UART_IRQHandler+0x2bc>
 8003aba:	e12a      	b.n	8003d12 <HAL_UART_IRQHandler+0x512>
 8003abc:	23a0      	movs	r3, #160	; 0xa0
 8003abe:	18fb      	adds	r3, r7, r3
 8003ac0:	681b      	ldr	r3, [r3, #0]
 8003ac2:	2210      	movs	r2, #16
 8003ac4:	4013      	ands	r3, r2
 8003ac6:	d100      	bne.n	8003aca <HAL_UART_IRQHandler+0x2ca>
 8003ac8:	e123      	b.n	8003d12 <HAL_UART_IRQHandler+0x512>
 8003aca:	687b      	ldr	r3, [r7, #4]
 8003acc:	681b      	ldr	r3, [r3, #0]
 8003ace:	2210      	movs	r2, #16
 8003ad0:	621a      	str	r2, [r3, #32]
 8003ad2:	687b      	ldr	r3, [r7, #4]
 8003ad4:	681b      	ldr	r3, [r3, #0]
 8003ad6:	689b      	ldr	r3, [r3, #8]
 8003ad8:	2240      	movs	r2, #64	; 0x40
 8003ada:	4013      	ands	r3, r2
 8003adc:	2b40      	cmp	r3, #64	; 0x40
 8003ade:	d000      	beq.n	8003ae2 <HAL_UART_IRQHandler+0x2e2>
 8003ae0:	e09b      	b.n	8003c1a <HAL_UART_IRQHandler+0x41a>
 8003ae2:	687b      	ldr	r3, [r7, #4]
 8003ae4:	6f1b      	ldr	r3, [r3, #112]	; 0x70
 8003ae6:	681b      	ldr	r3, [r3, #0]
 8003ae8:	685a      	ldr	r2, [r3, #4]
 8003aea:	217e      	movs	r1, #126	; 0x7e
 8003aec:	187b      	adds	r3, r7, r1
 8003aee:	801a      	strh	r2, [r3, #0]
 8003af0:	187b      	adds	r3, r7, r1
 8003af2:	881b      	ldrh	r3, [r3, #0]
 8003af4:	2b00      	cmp	r3, #0
 8003af6:	d100      	bne.n	8003afa <HAL_UART_IRQHandler+0x2fa>
 8003af8:	e14e      	b.n	8003d98 <HAL_UART_IRQHandler+0x598>
 8003afa:	687b      	ldr	r3, [r7, #4]
 8003afc:	2258      	movs	r2, #88	; 0x58
 8003afe:	5a9b      	ldrh	r3, [r3, r2]
 8003b00:	187a      	adds	r2, r7, r1
 8003b02:	8812      	ldrh	r2, [r2, #0]
 8003b04:	429a      	cmp	r2, r3
 8003b06:	d300      	bcc.n	8003b0a <HAL_UART_IRQHandler+0x30a>
 8003b08:	e146      	b.n	8003d98 <HAL_UART_IRQHandler+0x598>
 8003b0a:	687b      	ldr	r3, [r7, #4]
 8003b0c:	187a      	adds	r2, r7, r1
 8003b0e:	215a      	movs	r1, #90	; 0x5a
 8003b10:	8812      	ldrh	r2, [r2, #0]
 8003b12:	525a      	strh	r2, [r3, r1]
 8003b14:	687b      	ldr	r3, [r7, #4]
 8003b16:	6f1b      	ldr	r3, [r3, #112]	; 0x70
 8003b18:	699b      	ldr	r3, [r3, #24]
 8003b1a:	2b20      	cmp	r3, #32
 8003b1c:	d06e      	beq.n	8003bfc <HAL_UART_IRQHandler+0x3fc>
 8003b1e:	f3ef 8310 	mrs	r3, PRIMASK
 8003b22:	633b      	str	r3, [r7, #48]	; 0x30
 8003b24:	6b3b      	ldr	r3, [r7, #48]	; 0x30
 8003b26:	67bb      	str	r3, [r7, #120]	; 0x78
 8003b28:	2301      	movs	r3, #1
 8003b2a:	637b      	str	r3, [r7, #52]	; 0x34
 8003b2c:	6b7b      	ldr	r3, [r7, #52]	; 0x34
 8003b2e:	f383 8810 	msr	PRIMASK, r3
 8003b32:	46c0      	nop			; (mov r8, r8)
 8003b34:	687b      	ldr	r3, [r7, #4]
 8003b36:	681b      	ldr	r3, [r3, #0]
 8003b38:	681a      	ldr	r2, [r3, #0]
 8003b3a:	687b      	ldr	r3, [r7, #4]
 8003b3c:	681b      	ldr	r3, [r3, #0]
 8003b3e:	499a      	ldr	r1, [pc, #616]	; (8003da8 <HAL_UART_IRQHandler+0x5a8>)
 8003b40:	400a      	ands	r2, r1
 8003b42:	601a      	str	r2, [r3, #0]
 8003b44:	6fbb      	ldr	r3, [r7, #120]	; 0x78
 8003b46:	63bb      	str	r3, [r7, #56]	; 0x38
 8003b48:	6bbb      	ldr	r3, [r7, #56]	; 0x38
 8003b4a:	f383 8810 	msr	PRIMASK, r3
 8003b4e:	46c0      	nop			; (mov r8, r8)
 8003b50:	f3ef 8310 	mrs	r3, PRIMASK
 8003b54:	63fb      	str	r3, [r7, #60]	; 0x3c
 8003b56:	6bfb      	ldr	r3, [r7, #60]	; 0x3c
 8003b58:	677b      	str	r3, [r7, #116]	; 0x74
 8003b5a:	2301      	movs	r3, #1
 8003b5c:	643b      	str	r3, [r7, #64]	; 0x40
 8003b5e:	6c3b      	ldr	r3, [r7, #64]	; 0x40
 8003b60:	f383 8810 	msr	PRIMASK, r3
 8003b64:	46c0      	nop			; (mov r8, r8)
 8003b66:	687b      	ldr	r3, [r7, #4]
 8003b68:	681b      	ldr	r3, [r3, #0]
 8003b6a:	689a      	ldr	r2, [r3, #8]
 8003b6c:	687b      	ldr	r3, [r7, #4]
 8003b6e:	681b      	ldr	r3, [r3, #0]
 8003b70:	2101      	movs	r1, #1
 8003b72:	438a      	bics	r2, r1
 8003b74:	609a      	str	r2, [r3, #8]
 8003b76:	6f7b      	ldr	r3, [r7, #116]	; 0x74
 8003b78:	647b      	str	r3, [r7, #68]	; 0x44
 8003b7a:	6c7b      	ldr	r3, [r7, #68]	; 0x44
 8003b7c:	f383 8810 	msr	PRIMASK, r3
 8003b80:	46c0      	nop			; (mov r8, r8)
 8003b82:	f3ef 8310 	mrs	r3, PRIMASK
 8003b86:	64bb      	str	r3, [r7, #72]	; 0x48
 8003b88:	6cbb      	ldr	r3, [r7, #72]	; 0x48
 8003b8a:	673b      	str	r3, [r7, #112]	; 0x70
 8003b8c:	2301      	movs	r3, #1
 8003b8e:	64fb      	str	r3, [r7, #76]	; 0x4c
 8003b90:	6cfb      	ldr	r3, [r7, #76]	; 0x4c
 8003b92:	f383 8810 	msr	PRIMASK, r3
 8003b96:	46c0      	nop			; (mov r8, r8)
 8003b98:	687b      	ldr	r3, [r7, #4]
 8003b9a:	681b      	ldr	r3, [r3, #0]
 8003b9c:	689a      	ldr	r2, [r3, #8]
 8003b9e:	687b      	ldr	r3, [r7, #4]
 8003ba0:	681b      	ldr	r3, [r3, #0]
 8003ba2:	2140      	movs	r1, #64	; 0x40
 8003ba4:	438a      	bics	r2, r1
 8003ba6:	609a      	str	r2, [r3, #8]
 8003ba8:	6f3b      	ldr	r3, [r7, #112]	; 0x70
 8003baa:	653b      	str	r3, [r7, #80]	; 0x50
 8003bac:	6d3b      	ldr	r3, [r7, #80]	; 0x50
 8003bae:	f383 8810 	msr	PRIMASK, r3
 8003bb2:	46c0      	nop			; (mov r8, r8)
 8003bb4:	687b      	ldr	r3, [r7, #4]
 8003bb6:	2220      	movs	r2, #32
 8003bb8:	67da      	str	r2, [r3, #124]	; 0x7c
 8003bba:	687b      	ldr	r3, [r7, #4]
 8003bbc:	2200      	movs	r2, #0
 8003bbe:	661a      	str	r2, [r3, #96]	; 0x60
 8003bc0:	f3ef 8310 	mrs	r3, PRIMASK
 8003bc4:	657b      	str	r3, [r7, #84]	; 0x54
 8003bc6:	6d7b      	ldr	r3, [r7, #84]	; 0x54
 8003bc8:	66fb      	str	r3, [r7, #108]	; 0x6c
 8003bca:	2301      	movs	r3, #1
 8003bcc:	65bb      	str	r3, [r7, #88]	; 0x58
 8003bce:	6dbb      	ldr	r3, [r7, #88]	; 0x58
 8003bd0:	f383 8810 	msr	PRIMASK, r3
 8003bd4:	46c0      	nop			; (mov r8, r8)
 8003bd6:	687b      	ldr	r3, [r7, #4]
 8003bd8:	681b      	ldr	r3, [r3, #0]
 8003bda:	681a      	ldr	r2, [r3, #0]
 8003bdc:	687b      	ldr	r3, [r7, #4]
 8003bde:	681b      	ldr	r3, [r3, #0]
 8003be0:	2110      	movs	r1, #16
 8003be2:	438a      	bics	r2, r1
 8003be4:	601a      	str	r2, [r3, #0]
 8003be6:	6efb      	ldr	r3, [r7, #108]	; 0x6c
 8003be8:	65fb      	str	r3, [r7, #92]	; 0x5c
 8003bea:	6dfb      	ldr	r3, [r7, #92]	; 0x5c
 8003bec:	f383 8810 	msr	PRIMASK, r3
 8003bf0:	46c0      	nop			; (mov r8, r8)
 8003bf2:	687b      	ldr	r3, [r7, #4]
 8003bf4:	6f1b      	ldr	r3, [r3, #112]	; 0x70
 8003bf6:	0018      	movs	r0, r3
 8003bf8:	f7fd fefc 	bl	80019f4 <HAL_DMA_Abort>
 8003bfc:	687b      	ldr	r3, [r7, #4]
 8003bfe:	2258      	movs	r2, #88	; 0x58
 8003c00:	5a9a      	ldrh	r2, [r3, r2]
 8003c02:	687b      	ldr	r3, [r7, #4]
 8003c04:	215a      	movs	r1, #90	; 0x5a
 8003c06:	5a5b      	ldrh	r3, [r3, r1]
 8003c08:	b29b      	uxth	r3, r3
 8003c0a:	1ad3      	subs	r3, r2, r3
 8003c0c:	b29a      	uxth	r2, r3
 8003c0e:	687b      	ldr	r3, [r7, #4]
 8003c10:	0011      	movs	r1, r2
 8003c12:	0018      	movs	r0, r3
 8003c14:	f000 f8dc 	bl	8003dd0 <HAL_UARTEx_RxEventCallback>
 8003c18:	e0be      	b.n	8003d98 <HAL_UART_IRQHandler+0x598>
 8003c1a:	687b      	ldr	r3, [r7, #4]
 8003c1c:	2258      	movs	r2, #88	; 0x58
 8003c1e:	5a99      	ldrh	r1, [r3, r2]
 8003c20:	687b      	ldr	r3, [r7, #4]
 8003c22:	225a      	movs	r2, #90	; 0x5a
 8003c24:	5a9b      	ldrh	r3, [r3, r2]
 8003c26:	b29a      	uxth	r2, r3
 8003c28:	208e      	movs	r0, #142	; 0x8e
 8003c2a:	183b      	adds	r3, r7, r0
 8003c2c:	1a8a      	subs	r2, r1, r2
 8003c2e:	801a      	strh	r2, [r3, #0]
 8003c30:	687b      	ldr	r3, [r7, #4]
 8003c32:	225a      	movs	r2, #90	; 0x5a
 8003c34:	5a9b      	ldrh	r3, [r3, r2]
 8003c36:	b29b      	uxth	r3, r3
 8003c38:	2b00      	cmp	r3, #0
 8003c3a:	d100      	bne.n	8003c3e <HAL_UART_IRQHandler+0x43e>
 8003c3c:	e0ae      	b.n	8003d9c <HAL_UART_IRQHandler+0x59c>
 8003c3e:	183b      	adds	r3, r7, r0
 8003c40:	881b      	ldrh	r3, [r3, #0]
 8003c42:	2b00      	cmp	r3, #0
 8003c44:	d100      	bne.n	8003c48 <HAL_UART_IRQHandler+0x448>
 8003c46:	e0a9      	b.n	8003d9c <HAL_UART_IRQHandler+0x59c>
 8003c48:	f3ef 8310 	mrs	r3, PRIMASK
 8003c4c:	60fb      	str	r3, [r7, #12]
 8003c4e:	68fb      	ldr	r3, [r7, #12]
 8003c50:	2488      	movs	r4, #136	; 0x88
 8003c52:	193a      	adds	r2, r7, r4
 8003c54:	6013      	str	r3, [r2, #0]
 8003c56:	2301      	movs	r3, #1
 8003c58:	613b      	str	r3, [r7, #16]
 8003c5a:	693b      	ldr	r3, [r7, #16]
 8003c5c:	f383 8810 	msr	PRIMASK, r3
 8003c60:	46c0      	nop			; (mov r8, r8)
 8003c62:	687b      	ldr	r3, [r7, #4]
 8003c64:	681b      	ldr	r3, [r3, #0]
 8003c66:	681a      	ldr	r2, [r3, #0]
 8003c68:	687b      	ldr	r3, [r7, #4]
 8003c6a:	681b      	ldr	r3, [r3, #0]
 8003c6c:	494f      	ldr	r1, [pc, #316]	; (8003dac <HAL_UART_IRQHandler+0x5ac>)
 8003c6e:	400a      	ands	r2, r1
 8003c70:	601a      	str	r2, [r3, #0]
 8003c72:	193b      	adds	r3, r7, r4
 8003c74:	681b      	ldr	r3, [r3, #0]
 8003c76:	617b      	str	r3, [r7, #20]
 8003c78:	697b      	ldr	r3, [r7, #20]
 8003c7a:	f383 8810 	msr	PRIMASK, r3
 8003c7e:	46c0      	nop			; (mov r8, r8)
 8003c80:	f3ef 8310 	mrs	r3, PRIMASK
 8003c84:	61bb      	str	r3, [r7, #24]
 8003c86:	69bb      	ldr	r3, [r7, #24]
 8003c88:	2484      	movs	r4, #132	; 0x84
 8003c8a:	193a      	adds	r2, r7, r4
 8003c8c:	6013      	str	r3, [r2, #0]
 8003c8e:	2301      	movs	r3, #1
 8003c90:	61fb      	str	r3, [r7, #28]
 8003c92:	69fb      	ldr	r3, [r7, #28]
 8003c94:	f383 8810 	msr	PRIMASK, r3
 8003c98:	46c0      	nop			; (mov r8, r8)
 8003c9a:	687b      	ldr	r3, [r7, #4]
 8003c9c:	681b      	ldr	r3, [r3, #0]
 8003c9e:	689a      	ldr	r2, [r3, #8]
 8003ca0:	687b      	ldr	r3, [r7, #4]
 8003ca2:	681b      	ldr	r3, [r3, #0]
 8003ca4:	2101      	movs	r1, #1
 8003ca6:	438a      	bics	r2, r1
 8003ca8:	609a      	str	r2, [r3, #8]
 8003caa:	193b      	adds	r3, r7, r4
 8003cac:	681b      	ldr	r3, [r3, #0]
 8003cae:	623b      	str	r3, [r7, #32]
 8003cb0:	6a3b      	ldr	r3, [r7, #32]
 8003cb2:	f383 8810 	msr	PRIMASK, r3
 8003cb6:	46c0      	nop			; (mov r8, r8)
 8003cb8:	687b      	ldr	r3, [r7, #4]
 8003cba:	2220      	movs	r2, #32
 8003cbc:	67da      	str	r2, [r3, #124]	; 0x7c
 8003cbe:	687b      	ldr	r3, [r7, #4]
 8003cc0:	2200      	movs	r2, #0
 8003cc2:	661a      	str	r2, [r3, #96]	; 0x60
 8003cc4:	687b      	ldr	r3, [r7, #4]
 8003cc6:	2200      	movs	r2, #0
 8003cc8:	665a      	str	r2, [r3, #100]	; 0x64
 8003cca:	f3ef 8310 	mrs	r3, PRIMASK
 8003cce:	627b      	str	r3, [r7, #36]	; 0x24
 8003cd0:	6a7b      	ldr	r3, [r7, #36]	; 0x24
 8003cd2:	2480      	movs	r4, #128	; 0x80
 8003cd4:	193a      	adds	r2, r7, r4
 8003cd6:	6013      	str	r3, [r2, #0]
 8003cd8:	2301      	movs	r3, #1
 8003cda:	62bb      	str	r3, [r7, #40]	; 0x28
 8003cdc:	6abb      	ldr	r3, [r7, #40]	; 0x28
 8003cde:	f383 8810 	msr	PRIMASK, r3
 8003ce2:	46c0      	nop			; (mov r8, r8)
 8003ce4:	687b      	ldr	r3, [r7, #4]
 8003ce6:	681b      	ldr	r3, [r3, #0]
 8003ce8:	681a      	ldr	r2, [r3, #0]
 8003cea:	687b      	ldr	r3, [r7, #4]
 8003cec:	681b      	ldr	r3, [r3, #0]
 8003cee:	2110      	movs	r1, #16
 8003cf0:	438a      	bics	r2, r1
 8003cf2:	601a      	str	r2, [r3, #0]
 8003cf4:	193b      	adds	r3, r7, r4
 8003cf6:	681b      	ldr	r3, [r3, #0]
 8003cf8:	62fb      	str	r3, [r7, #44]	; 0x2c
 8003cfa:	6afb      	ldr	r3, [r7, #44]	; 0x2c
 8003cfc:	f383 8810 	msr	PRIMASK, r3
 8003d00:	46c0      	nop			; (mov r8, r8)
 8003d02:	183b      	adds	r3, r7, r0
 8003d04:	881a      	ldrh	r2, [r3, #0]
 8003d06:	687b      	ldr	r3, [r7, #4]
 8003d08:	0011      	movs	r1, r2
 8003d0a:	0018      	movs	r0, r3
 8003d0c:	f000 f860 	bl	8003dd0 <HAL_UARTEx_RxEventCallback>
 8003d10:	e044      	b.n	8003d9c <HAL_UART_IRQHandler+0x59c>
 8003d12:	23a4      	movs	r3, #164	; 0xa4
 8003d14:	18fb      	adds	r3, r7, r3
 8003d16:	681a      	ldr	r2, [r3, #0]
 8003d18:	2380      	movs	r3, #128	; 0x80
 8003d1a:	035b      	lsls	r3, r3, #13
 8003d1c:	4013      	ands	r3, r2
 8003d1e:	d010      	beq.n	8003d42 <HAL_UART_IRQHandler+0x542>
 8003d20:	239c      	movs	r3, #156	; 0x9c
 8003d22:	18fb      	adds	r3, r7, r3
 8003d24:	681a      	ldr	r2, [r3, #0]
 8003d26:	2380      	movs	r3, #128	; 0x80
 8003d28:	03db      	lsls	r3, r3, #15
 8003d2a:	4013      	ands	r3, r2
 8003d2c:	d009      	beq.n	8003d42 <HAL_UART_IRQHandler+0x542>
 8003d2e:	687b      	ldr	r3, [r7, #4]
 8003d30:	681b      	ldr	r3, [r3, #0]
 8003d32:	2280      	movs	r2, #128	; 0x80
 8003d34:	0352      	lsls	r2, r2, #13
 8003d36:	621a      	str	r2, [r3, #32]
 8003d38:	687b      	ldr	r3, [r7, #4]
 8003d3a:	0018      	movs	r0, r3
 8003d3c:	f000 fbf8 	bl	8004530 <HAL_UARTEx_WakeupCallback>
 8003d40:	e02f      	b.n	8003da2 <HAL_UART_IRQHandler+0x5a2>
 8003d42:	23a4      	movs	r3, #164	; 0xa4
 8003d44:	18fb      	adds	r3, r7, r3
 8003d46:	681b      	ldr	r3, [r3, #0]
 8003d48:	2280      	movs	r2, #128	; 0x80
 8003d4a:	4013      	ands	r3, r2
 8003d4c:	d00f      	beq.n	8003d6e <HAL_UART_IRQHandler+0x56e>
 8003d4e:	23a0      	movs	r3, #160	; 0xa0
 8003d50:	18fb      	adds	r3, r7, r3
 8003d52:	681b      	ldr	r3, [r3, #0]
 8003d54:	2280      	movs	r2, #128	; 0x80
 8003d56:	4013      	ands	r3, r2
 8003d58:	d009      	beq.n	8003d6e <HAL_UART_IRQHandler+0x56e>
 8003d5a:	687b      	ldr	r3, [r7, #4]
 8003d5c:	6e9b      	ldr	r3, [r3, #104]	; 0x68
 8003d5e:	2b00      	cmp	r3, #0
 8003d60:	d01e      	beq.n	8003da0 <HAL_UART_IRQHandler+0x5a0>
 8003d62:	687b      	ldr	r3, [r7, #4]
 8003d64:	6e9b      	ldr	r3, [r3, #104]	; 0x68
 8003d66:	687a      	ldr	r2, [r7, #4]
 8003d68:	0010      	movs	r0, r2
 8003d6a:	4798      	blx	r3
 8003d6c:	e018      	b.n	8003da0 <HAL_UART_IRQHandler+0x5a0>
 8003d6e:	23a4      	movs	r3, #164	; 0xa4
 8003d70:	18fb      	adds	r3, r7, r3
 8003d72:	681b      	ldr	r3, [r3, #0]
 8003d74:	2240      	movs	r2, #64	; 0x40
 8003d76:	4013      	ands	r3, r2
 8003d78:	d013      	beq.n	8003da2 <HAL_UART_IRQHandler+0x5a2>
 8003d7a:	23a0      	movs	r3, #160	; 0xa0
 8003d7c:	18fb      	adds	r3, r7, r3
 8003d7e:	681b      	ldr	r3, [r3, #0]
 8003d80:	2240      	movs	r2, #64	; 0x40
 8003d82:	4013      	ands	r3, r2
 8003d84:	d00d      	beq.n	8003da2 <HAL_UART_IRQHandler+0x5a2>
 8003d86:	687b      	ldr	r3, [r7, #4]
 8003d88:	0018      	movs	r0, r3
 8003d8a:	f000 fba6 	bl	80044da <UART_EndTransmit_IT>
 8003d8e:	e008      	b.n	8003da2 <HAL_UART_IRQHandler+0x5a2>
 8003d90:	46c0      	nop			; (mov r8, r8)
 8003d92:	e006      	b.n	8003da2 <HAL_UART_IRQHandler+0x5a2>
 8003d94:	46c0      	nop			; (mov r8, r8)
 8003d96:	e004      	b.n	8003da2 <HAL_UART_IRQHandler+0x5a2>
 8003d98:	46c0      	nop			; (mov r8, r8)
 8003d9a:	e002      	b.n	8003da2 <HAL_UART_IRQHandler+0x5a2>
 8003d9c:	46c0      	nop			; (mov r8, r8)
 8003d9e:	e000      	b.n	8003da2 <HAL_UART_IRQHandler+0x5a2>
 8003da0:	46c0      	nop			; (mov r8, r8)
 8003da2:	46bd      	mov	sp, r7
 8003da4:	b02b      	add	sp, #172	; 0xac
 8003da6:	bd90      	pop	{r4, r7, pc}
 8003da8:	fffffeff 	.word	0xfffffeff
 8003dac:	fffffedf 	.word	0xfffffedf

08003db0 <HAL_UART_TxCpltCallback>:
 8003db0:	b580      	push	{r7, lr}
 8003db2:	b082      	sub	sp, #8
 8003db4:	af00      	add	r7, sp, #0
 8003db6:	6078      	str	r0, [r7, #4]
 8003db8:	46c0      	nop			; (mov r8, r8)
 8003dba:	46bd      	mov	sp, r7
 8003dbc:	b002      	add	sp, #8
 8003dbe:	bd80      	pop	{r7, pc}

08003dc0 <HAL_UART_ErrorCallback>:
 8003dc0:	b580      	push	{r7, lr}
 8003dc2:	b082      	sub	sp, #8
 8003dc4:	af00      	add	r7, sp, #0
 8003dc6:	6078      	str	r0, [r7, #4]
 8003dc8:	46c0      	nop			; (mov r8, r8)
 8003dca:	46bd      	mov	sp, r7
 8003dcc:	b002      	add	sp, #8
 8003dce:	bd80      	pop	{r7, pc}

08003dd0 <HAL_UARTEx_RxEventCallback>:
 8003dd0:	b580      	push	{r7, lr}
 8003dd2:	b082      	sub	sp, #8
 8003dd4:	af00      	add	r7, sp, #0
 8003dd6:	6078      	str	r0, [r7, #4]
 8003dd8:	000a      	movs	r2, r1
 8003dda:	1cbb      	adds	r3, r7, #2
 8003ddc:	801a      	strh	r2, [r3, #0]
 8003dde:	46c0      	nop			; (mov r8, r8)
 8003de0:	46bd      	mov	sp, r7
 8003de2:	b002      	add	sp, #8
 8003de4:	bd80      	pop	{r7, pc}
	...

08003de8 <UART_SetConfig>:
 8003de8:	b580      	push	{r7, lr}
 8003dea:	b088      	sub	sp, #32
 8003dec:	af00      	add	r7, sp, #0
 8003dee:	6078      	str	r0, [r7, #4]
 8003df0:	231e      	movs	r3, #30
 8003df2:	18fb      	adds	r3, r7, r3
 8003df4:	2200      	movs	r2, #0
 8003df6:	701a      	strb	r2, [r3, #0]
 8003df8:	687b      	ldr	r3, [r7, #4]
 8003dfa:	689a      	ldr	r2, [r3, #8]
 8003dfc:	687b      	ldr	r3, [r7, #4]
 8003dfe:	691b      	ldr	r3, [r3, #16]
 8003e00:	431a      	orrs	r2, r3
 8003e02:	687b      	ldr	r3, [r7, #4]
 8003e04:	695b      	ldr	r3, [r3, #20]
 8003e06:	431a      	orrs	r2, r3
 8003e08:	687b      	ldr	r3, [r7, #4]
 8003e0a:	69db      	ldr	r3, [r3, #28]
 8003e0c:	4313      	orrs	r3, r2
 8003e0e:	617b      	str	r3, [r7, #20]
 8003e10:	687b      	ldr	r3, [r7, #4]
 8003e12:	681b      	ldr	r3, [r3, #0]
 8003e14:	681b      	ldr	r3, [r3, #0]
 8003e16:	4a8d      	ldr	r2, [pc, #564]	; (800404c <UART_SetConfig+0x264>)
 8003e18:	4013      	ands	r3, r2
 8003e1a:	0019      	movs	r1, r3
 8003e1c:	687b      	ldr	r3, [r7, #4]
 8003e1e:	681b      	ldr	r3, [r3, #0]
 8003e20:	697a      	ldr	r2, [r7, #20]
 8003e22:	430a      	orrs	r2, r1
 8003e24:	601a      	str	r2, [r3, #0]
 8003e26:	687b      	ldr	r3, [r7, #4]
 8003e28:	681b      	ldr	r3, [r3, #0]
 8003e2a:	685b      	ldr	r3, [r3, #4]
 8003e2c:	4a88      	ldr	r2, [pc, #544]	; (8004050 <UART_SetConfig+0x268>)
 8003e2e:	4013      	ands	r3, r2
 8003e30:	0019      	movs	r1, r3
 8003e32:	687b      	ldr	r3, [r7, #4]
 8003e34:	68da      	ldr	r2, [r3, #12]
 8003e36:	687b      	ldr	r3, [r7, #4]
 8003e38:	681b      	ldr	r3, [r3, #0]
 8003e3a:	430a      	orrs	r2, r1
 8003e3c:	605a      	str	r2, [r3, #4]
 8003e3e:	687b      	ldr	r3, [r7, #4]
 8003e40:	699b      	ldr	r3, [r3, #24]
 8003e42:	617b      	str	r3, [r7, #20]
 8003e44:	687b      	ldr	r3, [r7, #4]
 8003e46:	6a1b      	ldr	r3, [r3, #32]
 8003e48:	697a      	ldr	r2, [r7, #20]
 8003e4a:	4313      	orrs	r3, r2
 8003e4c:	617b      	str	r3, [r7, #20]
 8003e4e:	687b      	ldr	r3, [r7, #4]
 8003e50:	681b      	ldr	r3, [r3, #0]
 8003e52:	689b      	ldr	r3, [r3, #8]
 8003e54:	4a7f      	ldr	r2, [pc, #508]	; (8004054 <UART_SetConfig+0x26c>)
 8003e56:	4013      	ands	r3, r2
 8003e58:	0019      	movs	r1, r3
 8003e5a:	687b      	ldr	r3, [r7, #4]
 8003e5c:	681b      	ldr	r3, [r3, #0]
 8003e5e:	697a      	ldr	r2, [r7, #20]
 8003e60:	430a      	orrs	r2, r1
 8003e62:	609a      	str	r2, [r3, #8]
 8003e64:	687b      	ldr	r3, [r7, #4]
 8003e66:	681b      	ldr	r3, [r3, #0]
 8003e68:	4a7b      	ldr	r2, [pc, #492]	; (8004058 <UART_SetConfig+0x270>)
 8003e6a:	4293      	cmp	r3, r2
 8003e6c:	d127      	bne.n	8003ebe <UART_SetConfig+0xd6>
 8003e6e:	4b7b      	ldr	r3, [pc, #492]	; (800405c <UART_SetConfig+0x274>)
 8003e70:	6b1b      	ldr	r3, [r3, #48]	; 0x30
 8003e72:	2203      	movs	r2, #3
 8003e74:	4013      	ands	r3, r2
 8003e76:	2b03      	cmp	r3, #3
 8003e78:	d00d      	beq.n	8003e96 <UART_SetConfig+0xae>
 8003e7a:	d81b      	bhi.n	8003eb4 <UART_SetConfig+0xcc>
 8003e7c:	2b02      	cmp	r3, #2
 8003e7e:	d014      	beq.n	8003eaa <UART_SetConfig+0xc2>
 8003e80:	d818      	bhi.n	8003eb4 <UART_SetConfig+0xcc>
 8003e82:	2b00      	cmp	r3, #0
 8003e84:	d002      	beq.n	8003e8c <UART_SetConfig+0xa4>
 8003e86:	2b01      	cmp	r3, #1
 8003e88:	d00a      	beq.n	8003ea0 <UART_SetConfig+0xb8>
 8003e8a:	e013      	b.n	8003eb4 <UART_SetConfig+0xcc>
 8003e8c:	231f      	movs	r3, #31
 8003e8e:	18fb      	adds	r3, r7, r3
 8003e90:	2200      	movs	r2, #0
 8003e92:	701a      	strb	r2, [r3, #0]
 8003e94:	e021      	b.n	8003eda <UART_SetConfig+0xf2>
 8003e96:	231f      	movs	r3, #31
 8003e98:	18fb      	adds	r3, r7, r3
 8003e9a:	2202      	movs	r2, #2
 8003e9c:	701a      	strb	r2, [r3, #0]
 8003e9e:	e01c      	b.n	8003eda <UART_SetConfig+0xf2>
 8003ea0:	231f      	movs	r3, #31
 8003ea2:	18fb      	adds	r3, r7, r3
 8003ea4:	2204      	movs	r2, #4
 8003ea6:	701a      	strb	r2, [r3, #0]
 8003ea8:	e017      	b.n	8003eda <UART_SetConfig+0xf2>
 8003eaa:	231f      	movs	r3, #31
 8003eac:	18fb      	adds	r3, r7, r3
 8003eae:	2208      	movs	r2, #8
 8003eb0:	701a      	strb	r2, [r3, #0]
 8003eb2:	e012      	b.n	8003eda <UART_SetConfig+0xf2>
 8003eb4:	231f      	movs	r3, #31
 8003eb6:	18fb      	adds	r3, r7, r3
 8003eb8:	2210      	movs	r2, #16
 8003eba:	701a      	strb	r2, [r3, #0]
 8003ebc:	e00d      	b.n	8003eda <UART_SetConfig+0xf2>
 8003ebe:	687b      	ldr	r3, [r7, #4]
 8003ec0:	681b      	ldr	r3, [r3, #0]
 8003ec2:	4a67      	ldr	r2, [pc, #412]	; (8004060 <UART_SetConfig+0x278>)
 8003ec4:	4293      	cmp	r3, r2
 8003ec6:	d104      	bne.n	8003ed2 <UART_SetConfig+0xea>
 8003ec8:	231f      	movs	r3, #31
 8003eca:	18fb      	adds	r3, r7, r3
 8003ecc:	2200      	movs	r2, #0
 8003ece:	701a      	strb	r2, [r3, #0]
 8003ed0:	e003      	b.n	8003eda <UART_SetConfig+0xf2>
 8003ed2:	231f      	movs	r3, #31
 8003ed4:	18fb      	adds	r3, r7, r3
 8003ed6:	2210      	movs	r2, #16
 8003ed8:	701a      	strb	r2, [r3, #0]
 8003eda:	687b      	ldr	r3, [r7, #4]
 8003edc:	69da      	ldr	r2, [r3, #28]
 8003ede:	2380      	movs	r3, #128	; 0x80
 8003ee0:	021b      	lsls	r3, r3, #8
 8003ee2:	429a      	cmp	r2, r3
 8003ee4:	d15d      	bne.n	8003fa2 <UART_SetConfig+0x1ba>
 8003ee6:	231f      	movs	r3, #31
 8003ee8:	18fb      	adds	r3, r7, r3
 8003eea:	781b      	ldrb	r3, [r3, #0]
 8003eec:	2b08      	cmp	r3, #8
 8003eee:	d015      	beq.n	8003f1c <UART_SetConfig+0x134>
 8003ef0:	dc18      	bgt.n	8003f24 <UART_SetConfig+0x13c>
 8003ef2:	2b04      	cmp	r3, #4
 8003ef4:	d00d      	beq.n	8003f12 <UART_SetConfig+0x12a>
 8003ef6:	dc15      	bgt.n	8003f24 <UART_SetConfig+0x13c>
 8003ef8:	2b00      	cmp	r3, #0
 8003efa:	d002      	beq.n	8003f02 <UART_SetConfig+0x11a>
 8003efc:	2b02      	cmp	r3, #2
 8003efe:	d005      	beq.n	8003f0c <UART_SetConfig+0x124>
 8003f00:	e010      	b.n	8003f24 <UART_SetConfig+0x13c>
 8003f02:	f7fe fcd7 	bl	80028b4 <HAL_RCC_GetPCLK1Freq>
 8003f06:	0003      	movs	r3, r0
 8003f08:	61bb      	str	r3, [r7, #24]
 8003f0a:	e012      	b.n	8003f32 <UART_SetConfig+0x14a>
 8003f0c:	4b55      	ldr	r3, [pc, #340]	; (8004064 <UART_SetConfig+0x27c>)
 8003f0e:	61bb      	str	r3, [r7, #24]
 8003f10:	e00f      	b.n	8003f32 <UART_SetConfig+0x14a>
 8003f12:	f7fe fc61 	bl	80027d8 <HAL_RCC_GetSysClockFreq>
 8003f16:	0003      	movs	r3, r0
 8003f18:	61bb      	str	r3, [r7, #24]
 8003f1a:	e00a      	b.n	8003f32 <UART_SetConfig+0x14a>
 8003f1c:	2380      	movs	r3, #128	; 0x80
 8003f1e:	021b      	lsls	r3, r3, #8
 8003f20:	61bb      	str	r3, [r7, #24]
 8003f22:	e006      	b.n	8003f32 <UART_SetConfig+0x14a>
 8003f24:	2300      	movs	r3, #0
 8003f26:	61bb      	str	r3, [r7, #24]
 8003f28:	231e      	movs	r3, #30
 8003f2a:	18fb      	adds	r3, r7, r3
 8003f2c:	2201      	movs	r2, #1
 8003f2e:	701a      	strb	r2, [r3, #0]
 8003f30:	46c0      	nop			; (mov r8, r8)
 8003f32:	69bb      	ldr	r3, [r7, #24]
 8003f34:	2b00      	cmp	r3, #0
 8003f36:	d100      	bne.n	8003f3a <UART_SetConfig+0x152>
 8003f38:	e07b      	b.n	8004032 <UART_SetConfig+0x24a>
 8003f3a:	69bb      	ldr	r3, [r7, #24]
 8003f3c:	005a      	lsls	r2, r3, #1
 8003f3e:	687b      	ldr	r3, [r7, #4]
 8003f40:	685b      	ldr	r3, [r3, #4]
 8003f42:	085b      	lsrs	r3, r3, #1
 8003f44:	18d2      	adds	r2, r2, r3
 8003f46:	687b      	ldr	r3, [r7, #4]
 8003f48:	685b      	ldr	r3, [r3, #4]
 8003f4a:	0019      	movs	r1, r3
 8003f4c:	0010      	movs	r0, r2
 8003f4e:	f7fc f8e5 	bl	800011c <__udivsi3>
 8003f52:	0003      	movs	r3, r0
 8003f54:	b29b      	uxth	r3, r3
 8003f56:	613b      	str	r3, [r7, #16]
 8003f58:	693b      	ldr	r3, [r7, #16]
 8003f5a:	2b0f      	cmp	r3, #15
 8003f5c:	d91c      	bls.n	8003f98 <UART_SetConfig+0x1b0>
 8003f5e:	693a      	ldr	r2, [r7, #16]
 8003f60:	2380      	movs	r3, #128	; 0x80
 8003f62:	025b      	lsls	r3, r3, #9
 8003f64:	429a      	cmp	r2, r3
 8003f66:	d217      	bcs.n	8003f98 <UART_SetConfig+0x1b0>
 8003f68:	693b      	ldr	r3, [r7, #16]
 8003f6a:	b29a      	uxth	r2, r3
 8003f6c:	200e      	movs	r0, #14
 8003f6e:	183b      	adds	r3, r7, r0
 8003f70:	210f      	movs	r1, #15
 8003f72:	438a      	bics	r2, r1
 8003f74:	801a      	strh	r2, [r3, #0]
 8003f76:	693b      	ldr	r3, [r7, #16]
 8003f78:	085b      	lsrs	r3, r3, #1
 8003f7a:	b29b      	uxth	r3, r3
 8003f7c:	2207      	movs	r2, #7
 8003f7e:	4013      	ands	r3, r2
 8003f80:	b299      	uxth	r1, r3
 8003f82:	183b      	adds	r3, r7, r0
 8003f84:	183a      	adds	r2, r7, r0
 8003f86:	8812      	ldrh	r2, [r2, #0]
 8003f88:	430a      	orrs	r2, r1
 8003f8a:	801a      	strh	r2, [r3, #0]
 8003f8c:	687b      	ldr	r3, [r7, #4]
 8003f8e:	681b      	ldr	r3, [r3, #0]
 8003f90:	183a      	adds	r2, r7, r0
 8003f92:	8812      	ldrh	r2, [r2, #0]
 8003f94:	60da      	str	r2, [r3, #12]
 8003f96:	e04c      	b.n	8004032 <UART_SetConfig+0x24a>
 8003f98:	231e      	movs	r3, #30
 8003f9a:	18fb      	adds	r3, r7, r3
 8003f9c:	2201      	movs	r2, #1
 8003f9e:	701a      	strb	r2, [r3, #0]
 8003fa0:	e047      	b.n	8004032 <UART_SetConfig+0x24a>
 8003fa2:	231f      	movs	r3, #31
 8003fa4:	18fb      	adds	r3, r7, r3
 8003fa6:	781b      	ldrb	r3, [r3, #0]
 8003fa8:	2b08      	cmp	r3, #8
 8003faa:	d015      	beq.n	8003fd8 <UART_SetConfig+0x1f0>
 8003fac:	dc18      	bgt.n	8003fe0 <UART_SetConfig+0x1f8>
 8003fae:	2b04      	cmp	r3, #4
 8003fb0:	d00d      	beq.n	8003fce <UART_SetConfig+0x1e6>
 8003fb2:	dc15      	bgt.n	8003fe0 <UART_SetConfig+0x1f8>
 8003fb4:	2b00      	cmp	r3, #0
 8003fb6:	d002      	beq.n	8003fbe <UART_SetConfig+0x1d6>
 8003fb8:	2b02      	cmp	r3, #2
 8003fba:	d005      	beq.n	8003fc8 <UART_SetConfig+0x1e0>
 8003fbc:	e010      	b.n	8003fe0 <UART_SetConfig+0x1f8>
 8003fbe:	f7fe fc79 	bl	80028b4 <HAL_RCC_GetPCLK1Freq>
 8003fc2:	0003      	movs	r3, r0
 8003fc4:	61bb      	str	r3, [r7, #24]
 8003fc6:	e012      	b.n	8003fee <UART_SetConfig+0x206>
 8003fc8:	4b26      	ldr	r3, [pc, #152]	; (8004064 <UART_SetConfig+0x27c>)
 8003fca:	61bb      	str	r3, [r7, #24]
 8003fcc:	e00f      	b.n	8003fee <UART_SetConfig+0x206>
 8003fce:	f7fe fc03 	bl	80027d8 <HAL_RCC_GetSysClockFreq>
 8003fd2:	0003      	movs	r3, r0
 8003fd4:	61bb      	str	r3, [r7, #24]
 8003fd6:	e00a      	b.n	8003fee <UART_SetConfig+0x206>
 8003fd8:	2380      	movs	r3, #128	; 0x80
 8003fda:	021b      	lsls	r3, r3, #8
 8003fdc:	61bb      	str	r3, [r7, #24]
 8003fde:	e006      	b.n	8003fee <UART_SetConfig+0x206>
 8003fe0:	2300      	movs	r3, #0
 8003fe2:	61bb      	str	r3, [r7, #24]
 8003fe4:	231e      	movs	r3, #30
 8003fe6:	18fb      	adds	r3, r7, r3
 8003fe8:	2201      	movs	r2, #1
 8003fea:	701a      	strb	r2, [r3, #0]
 8003fec:	46c0      	nop			; (mov r8, r8)
 8003fee:	69bb      	ldr	r3, [r7, #24]
 8003ff0:	2b00      	cmp	r3, #0
 8003ff2:	d01e      	beq.n	8004032 <UART_SetConfig+0x24a>
 8003ff4:	687b      	ldr	r3, [r7, #4]
 8003ff6:	685b      	ldr	r3, [r3, #4]
 8003ff8:	085a      	lsrs	r2, r3, #1
 8003ffa:	69bb      	ldr	r3, [r7, #24]
 8003ffc:	18d2      	adds	r2, r2, r3
 8003ffe:	687b      	ldr	r3, [r7, #4]
 8004000:	685b      	ldr	r3, [r3, #4]
 8004002:	0019      	movs	r1, r3
 8004004:	0010      	movs	r0, r2
 8004006:	f7fc f889 	bl	800011c <__udivsi3>
 800400a:	0003      	movs	r3, r0
 800400c:	b29b      	uxth	r3, r3
 800400e:	613b      	str	r3, [r7, #16]
 8004010:	693b      	ldr	r3, [r7, #16]
 8004012:	2b0f      	cmp	r3, #15
 8004014:	d909      	bls.n	800402a <UART_SetConfig+0x242>
 8004016:	693a      	ldr	r2, [r7, #16]
 8004018:	2380      	movs	r3, #128	; 0x80
 800401a:	025b      	lsls	r3, r3, #9
 800401c:	429a      	cmp	r2, r3
 800401e:	d204      	bcs.n	800402a <UART_SetConfig+0x242>
 8004020:	687b      	ldr	r3, [r7, #4]
 8004022:	681b      	ldr	r3, [r3, #0]
 8004024:	693a      	ldr	r2, [r7, #16]
 8004026:	60da      	str	r2, [r3, #12]
 8004028:	e003      	b.n	8004032 <UART_SetConfig+0x24a>
 800402a:	231e      	movs	r3, #30
 800402c:	18fb      	adds	r3, r7, r3
 800402e:	2201      	movs	r2, #1
 8004030:	701a      	strb	r2, [r3, #0]
 8004032:	687b      	ldr	r3, [r7, #4]
 8004034:	2200      	movs	r2, #0
 8004036:	665a      	str	r2, [r3, #100]	; 0x64
 8004038:	687b      	ldr	r3, [r7, #4]
 800403a:	2200      	movs	r2, #0
 800403c:	669a      	str	r2, [r3, #104]	; 0x68
 800403e:	231e      	movs	r3, #30
 8004040:	18fb      	adds	r3, r7, r3
 8004042:	781b      	ldrb	r3, [r3, #0]
 8004044:	0018      	movs	r0, r3
 8004046:	46bd      	mov	sp, r7
 8004048:	b008      	add	sp, #32
 800404a:	bd80      	pop	{r7, pc}
 800404c:	ffff69f3 	.word	0xffff69f3
 8004050:	ffffcfff 	.word	0xffffcfff
 8004054:	fffff4ff 	.word	0xfffff4ff
 8004058:	40013800 	.word	0x40013800
 800405c:	40021000 	.word	0x40021000
 8004060:	40004400 	.word	0x40004400
 8004064:	007a1200 	.word	0x007a1200

08004068 <UART_AdvFeatureConfig>:
 8004068:	b580      	push	{r7, lr}
 800406a:	b082      	sub	sp, #8
 800406c:	af00      	add	r7, sp, #0
 800406e:	6078      	str	r0, [r7, #4]
 8004070:	687b      	ldr	r3, [r7, #4]
 8004072:	6a5b      	ldr	r3, [r3, #36]	; 0x24
 8004074:	2201      	movs	r2, #1
 8004076:	4013      	ands	r3, r2
 8004078:	d00b      	beq.n	8004092 <UART_AdvFeatureConfig+0x2a>
 800407a:	687b      	ldr	r3, [r7, #4]
 800407c:	681b      	ldr	r3, [r3, #0]
 800407e:	685b      	ldr	r3, [r3, #4]
 8004080:	4a4a      	ldr	r2, [pc, #296]	; (80041ac <UART_AdvFeatureConfig+0x144>)
 8004082:	4013      	ands	r3, r2
 8004084:	0019      	movs	r1, r3
 8004086:	687b      	ldr	r3, [r7, #4]
 8004088:	6a9a      	ldr	r2, [r3, #40]	; 0x28
 800408a:	687b      	ldr	r3, [r7, #4]
 800408c:	681b      	ldr	r3, [r3, #0]
 800408e:	430a      	orrs	r2, r1
 8004090:	605a      	str	r2, [r3, #4]
 8004092:	687b      	ldr	r3, [r7, #4]
 8004094:	6a5b      	ldr	r3, [r3, #36]	; 0x24
 8004096:	2202      	movs	r2, #2
 8004098:	4013      	ands	r3, r2
 800409a:	d00b      	beq.n	80040b4 <UART_AdvFeatureConfig+0x4c>
 800409c:	687b      	ldr	r3, [r7, #4]
 800409e:	681b      	ldr	r3, [r3, #0]
 80040a0:	685b      	ldr	r3, [r3, #4]
 80040a2:	4a43      	ldr	r2, [pc, #268]	; (80041b0 <UART_AdvFeatureConfig+0x148>)
 80040a4:	4013      	ands	r3, r2
 80040a6:	0019      	movs	r1, r3
 80040a8:	687b      	ldr	r3, [r7, #4]
 80040aa:	6ada      	ldr	r2, [r3, #44]	; 0x2c
 80040ac:	687b      	ldr	r3, [r7, #4]
 80040ae:	681b      	ldr	r3, [r3, #0]
 80040b0:	430a      	orrs	r2, r1
 80040b2:	605a      	str	r2, [r3, #4]
 80040b4:	687b      	ldr	r3, [r7, #4]
 80040b6:	6a5b      	ldr	r3, [r3, #36]	; 0x24
 80040b8:	2204      	movs	r2, #4
 80040ba:	4013      	ands	r3, r2
 80040bc:	d00b      	beq.n	80040d6 <UART_AdvFeatureConfig+0x6e>
 80040be:	687b      	ldr	r3, [r7, #4]
 80040c0:	681b      	ldr	r3, [r3, #0]
 80040c2:	685b      	ldr	r3, [r3, #4]
 80040c4:	4a3b      	ldr	r2, [pc, #236]	; (80041b4 <UART_AdvFeatureConfig+0x14c>)
 80040c6:	4013      	ands	r3, r2
 80040c8:	0019      	movs	r1, r3
 80040ca:	687b      	ldr	r3, [r7, #4]
 80040cc:	6b1a      	ldr	r2, [r3, #48]	; 0x30
 80040ce:	687b      	ldr	r3, [r7, #4]
 80040d0:	681b      	ldr	r3, [r3, #0]
 80040d2:	430a      	orrs	r2, r1
 80040d4:	605a      	str	r2, [r3, #4]
 80040d6:	687b      	ldr	r3, [r7, #4]
 80040d8:	6a5b      	ldr	r3, [r3, #36]	; 0x24
 80040da:	2208      	movs	r2, #8
 80040dc:	4013      	ands	r3, r2
 80040de:	d00b      	beq.n	80040f8 <UART_AdvFeatureConfig+0x90>
 80040e0:	687b      	ldr	r3, [r7, #4]
 80040e2:	681b      	ldr	r3, [r3, #0]
 80040e4:	685b      	ldr	r3, [r3, #4]
 80040e6:	4a34      	ldr	r2, [pc, #208]	; (80041b8 <UART_AdvFeatureConfig+0x150>)
 80040e8:	4013      	ands	r3, r2
 80040ea:	0019      	movs	r1, r3
 80040ec:	687b      	ldr	r3, [r7, #4]
 80040ee:	6b5a      	ldr	r2, [r3, #52]	; 0x34
 80040f0:	687b      	ldr	r3, [r7, #4]
 80040f2:	681b      	ldr	r3, [r3, #0]
 80040f4:	430a      	orrs	r2, r1
 80040f6:	605a      	str	r2, [r3, #4]
 80040f8:	687b      	ldr	r3, [r7, #4]
 80040fa:	6a5b      	ldr	r3, [r3, #36]	; 0x24
 80040fc:	2210      	movs	r2, #16
 80040fe:	4013      	ands	r3, r2
 8004100:	d00b      	beq.n	800411a <UART_AdvFeatureConfig+0xb2>
 8004102:	687b      	ldr	r3, [r7, #4]
 8004104:	681b      	ldr	r3, [r3, #0]
 8004106:	689b      	ldr	r3, [r3, #8]
 8004108:	4a2c      	ldr	r2, [pc, #176]	; (80041bc <UART_AdvFeatureConfig+0x154>)
 800410a:	4013      	ands	r3, r2
 800410c:	0019      	movs	r1, r3
 800410e:	687b      	ldr	r3, [r7, #4]
 8004110:	6b9a      	ldr	r2, [r3, #56]	; 0x38
 8004112:	687b      	ldr	r3, [r7, #4]
 8004114:	681b      	ldr	r3, [r3, #0]
 8004116:	430a      	orrs	r2, r1
 8004118:	609a      	str	r2, [r3, #8]
 800411a:	687b      	ldr	r3, [r7, #4]
 800411c:	6a5b      	ldr	r3, [r3, #36]	; 0x24
 800411e:	2220      	movs	r2, #32
 8004120:	4013      	ands	r3, r2
 8004122:	d00b      	beq.n	800413c <UART_AdvFeatureConfig+0xd4>
 8004124:	687b      	ldr	r3, [r7, #4]
 8004126:	681b      	ldr	r3, [r3, #0]
 8004128:	689b      	ldr	r3, [r3, #8]
 800412a:	4a25      	ldr	r2, [pc, #148]	; (80041c0 <UART_AdvFeatureConfig+0x158>)
 800412c:	4013      	ands	r3, r2
 800412e:	0019      	movs	r1, r3
 8004130:	687b      	ldr	r3, [r7, #4]
 8004132:	6bda      	ldr	r2, [r3, #60]	; 0x3c
 8004134:	687b      	ldr	r3, [r7, #4]
 8004136:	681b      	ldr	r3, [r3, #0]
 8004138:	430a      	orrs	r2, r1
 800413a:	609a      	str	r2, [r3, #8]
 800413c:	687b      	ldr	r3, [r7, #4]
 800413e:	6a5b      	ldr	r3, [r3, #36]	; 0x24
 8004140:	2240      	movs	r2, #64	; 0x40
 8004142:	4013      	ands	r3, r2
 8004144:	d01d      	beq.n	8004182 <UART_AdvFeatureConfig+0x11a>
 8004146:	687b      	ldr	r3, [r7, #4]
 8004148:	681b      	ldr	r3, [r3, #0]
 800414a:	685b      	ldr	r3, [r3, #4]
 800414c:	4a1d      	ldr	r2, [pc, #116]	; (80041c4 <UART_AdvFeatureConfig+0x15c>)
 800414e:	4013      	ands	r3, r2
 8004150:	0019      	movs	r1, r3
 8004152:	687b      	ldr	r3, [r7, #4]
 8004154:	6c1a      	ldr	r2, [r3, #64]	; 0x40
 8004156:	687b      	ldr	r3, [r7, #4]
 8004158:	681b      	ldr	r3, [r3, #0]
 800415a:	430a      	orrs	r2, r1
 800415c:	605a      	str	r2, [r3, #4]
 800415e:	687b      	ldr	r3, [r7, #4]
 8004160:	6c1a      	ldr	r2, [r3, #64]	; 0x40
 8004162:	2380      	movs	r3, #128	; 0x80
 8004164:	035b      	lsls	r3, r3, #13
 8004166:	429a      	cmp	r2, r3
 8004168:	d10b      	bne.n	8004182 <UART_AdvFeatureConfig+0x11a>
 800416a:	687b      	ldr	r3, [r7, #4]
 800416c:	681b      	ldr	r3, [r3, #0]
 800416e:	685b      	ldr	r3, [r3, #4]
 8004170:	4a15      	ldr	r2, [pc, #84]	; (80041c8 <UART_AdvFeatureConfig+0x160>)
 8004172:	4013      	ands	r3, r2
 8004174:	0019      	movs	r1, r3
 8004176:	687b      	ldr	r3, [r7, #4]
 8004178:	6c5a      	ldr	r2, [r3, #68]	; 0x44
 800417a:	687b      	ldr	r3, [r7, #4]
 800417c:	681b      	ldr	r3, [r3, #0]
 800417e:	430a      	orrs	r2, r1
 8004180:	605a      	str	r2, [r3, #4]
 8004182:	687b      	ldr	r3, [r7, #4]
 8004184:	6a5b      	ldr	r3, [r3, #36]	; 0x24
 8004186:	2280      	movs	r2, #128	; 0x80
 8004188:	4013      	ands	r3, r2
 800418a:	d00b      	beq.n	80041a4 <UART_AdvFeatureConfig+0x13c>
 800418c:	687b      	ldr	r3, [r7, #4]
 800418e:	681b      	ldr	r3, [r3, #0]
 8004190:	685b      	ldr	r3, [r3, #4]
 8004192:	4a0e      	ldr	r2, [pc, #56]	; (80041cc <UART_AdvFeatureConfig+0x164>)
 8004194:	4013      	ands	r3, r2
 8004196:	0019      	movs	r1, r3
 8004198:	687b      	ldr	r3, [r7, #4]
 800419a:	6c9a      	ldr	r2, [r3, #72]	; 0x48
 800419c:	687b      	ldr	r3, [r7, #4]
 800419e:	681b      	ldr	r3, [r3, #0]
 80041a0:	430a      	orrs	r2, r1
 80041a2:	605a      	str	r2, [r3, #4]
 80041a4:	46c0      	nop			; (mov r8, r8)
 80041a6:	46bd      	mov	sp, r7
 80041a8:	b002      	add	sp, #8
 80041aa:	bd80      	pop	{r7, pc}
 80041ac:	fffdffff 	.word	0xfffdffff
 80041b0:	fffeffff 	.word	0xfffeffff
 80041b4:	fffbffff 	.word	0xfffbffff
 80041b8:	ffff7fff 	.word	0xffff7fff
 80041bc:	ffffefff 	.word	0xffffefff
 80041c0:	ffffdfff 	.word	0xffffdfff
 80041c4:	ffefffff 	.word	0xffefffff
 80041c8:	ff9fffff 	.word	0xff9fffff
 80041cc:	fff7ffff 	.word	0xfff7ffff

080041d0 <UART_CheckIdleState>:
 80041d0:	b580      	push	{r7, lr}
 80041d2:	b086      	sub	sp, #24
 80041d4:	af02      	add	r7, sp, #8
 80041d6:	6078      	str	r0, [r7, #4]
 80041d8:	687b      	ldr	r3, [r7, #4]
 80041da:	2280      	movs	r2, #128	; 0x80
 80041dc:	2100      	movs	r1, #0
 80041de:	5099      	str	r1, [r3, r2]
 80041e0:	f7fc fd72 	bl	8000cc8 <HAL_GetTick>
 80041e4:	0003      	movs	r3, r0
 80041e6:	60fb      	str	r3, [r7, #12]
 80041e8:	687b      	ldr	r3, [r7, #4]
 80041ea:	681b      	ldr	r3, [r3, #0]
 80041ec:	681b      	ldr	r3, [r3, #0]
 80041ee:	2208      	movs	r2, #8
 80041f0:	4013      	ands	r3, r2
 80041f2:	2b08      	cmp	r3, #8
 80041f4:	d10c      	bne.n	8004210 <UART_CheckIdleState+0x40>
 80041f6:	68fb      	ldr	r3, [r7, #12]
 80041f8:	2280      	movs	r2, #128	; 0x80
 80041fa:	0391      	lsls	r1, r2, #14
 80041fc:	6878      	ldr	r0, [r7, #4]
 80041fe:	4a17      	ldr	r2, [pc, #92]	; (800425c <UART_CheckIdleState+0x8c>)
 8004200:	9200      	str	r2, [sp, #0]
 8004202:	2200      	movs	r2, #0
 8004204:	f000 f82c 	bl	8004260 <UART_WaitOnFlagUntilTimeout>
 8004208:	1e03      	subs	r3, r0, #0
 800420a:	d001      	beq.n	8004210 <UART_CheckIdleState+0x40>
 800420c:	2303      	movs	r3, #3
 800420e:	e021      	b.n	8004254 <UART_CheckIdleState+0x84>
 8004210:	687b      	ldr	r3, [r7, #4]
 8004212:	681b      	ldr	r3, [r3, #0]
 8004214:	681b      	ldr	r3, [r3, #0]
 8004216:	2204      	movs	r2, #4
 8004218:	4013      	ands	r3, r2
 800421a:	2b04      	cmp	r3, #4
 800421c:	d10c      	bne.n	8004238 <UART_CheckIdleState+0x68>
 800421e:	68fb      	ldr	r3, [r7, #12]
 8004220:	2280      	movs	r2, #128	; 0x80
 8004222:	03d1      	lsls	r1, r2, #15
 8004224:	6878      	ldr	r0, [r7, #4]
 8004226:	4a0d      	ldr	r2, [pc, #52]	; (800425c <UART_CheckIdleState+0x8c>)
 8004228:	9200      	str	r2, [sp, #0]
 800422a:	2200      	movs	r2, #0
 800422c:	f000 f818 	bl	8004260 <UART_WaitOnFlagUntilTimeout>
 8004230:	1e03      	subs	r3, r0, #0
 8004232:	d001      	beq.n	8004238 <UART_CheckIdleState+0x68>
 8004234:	2303      	movs	r3, #3
 8004236:	e00d      	b.n	8004254 <UART_CheckIdleState+0x84>
 8004238:	687b      	ldr	r3, [r7, #4]
 800423a:	2220      	movs	r2, #32
 800423c:	679a      	str	r2, [r3, #120]	; 0x78
 800423e:	687b      	ldr	r3, [r7, #4]
 8004240:	2220      	movs	r2, #32
 8004242:	67da      	str	r2, [r3, #124]	; 0x7c
 8004244:	687b      	ldr	r3, [r7, #4]
 8004246:	2200      	movs	r2, #0
 8004248:	661a      	str	r2, [r3, #96]	; 0x60
 800424a:	687b      	ldr	r3, [r7, #4]
 800424c:	2274      	movs	r2, #116	; 0x74
 800424e:	2100      	movs	r1, #0
 8004250:	5499      	strb	r1, [r3, r2]
 8004252:	2300      	movs	r3, #0
 8004254:	0018      	movs	r0, r3
 8004256:	46bd      	mov	sp, r7
 8004258:	b004      	add	sp, #16
 800425a:	bd80      	pop	{r7, pc}
 800425c:	01ffffff 	.word	0x01ffffff

08004260 <UART_WaitOnFlagUntilTimeout>:
 8004260:	b580      	push	{r7, lr}
 8004262:	b094      	sub	sp, #80	; 0x50
 8004264:	af00      	add	r7, sp, #0
 8004266:	60f8      	str	r0, [r7, #12]
 8004268:	60b9      	str	r1, [r7, #8]
 800426a:	603b      	str	r3, [r7, #0]
 800426c:	1dfb      	adds	r3, r7, #7
 800426e:	701a      	strb	r2, [r3, #0]
 8004270:	e0a3      	b.n	80043ba <UART_WaitOnFlagUntilTimeout+0x15a>
 8004272:	6dbb      	ldr	r3, [r7, #88]	; 0x58
 8004274:	3301      	adds	r3, #1
 8004276:	d100      	bne.n	800427a <UART_WaitOnFlagUntilTimeout+0x1a>
 8004278:	e09f      	b.n	80043ba <UART_WaitOnFlagUntilTimeout+0x15a>
 800427a:	f7fc fd25 	bl	8000cc8 <HAL_GetTick>
 800427e:	0002      	movs	r2, r0
 8004280:	683b      	ldr	r3, [r7, #0]
 8004282:	1ad3      	subs	r3, r2, r3
 8004284:	6dba      	ldr	r2, [r7, #88]	; 0x58
 8004286:	429a      	cmp	r2, r3
 8004288:	d302      	bcc.n	8004290 <UART_WaitOnFlagUntilTimeout+0x30>
 800428a:	6dbb      	ldr	r3, [r7, #88]	; 0x58
 800428c:	2b00      	cmp	r3, #0
 800428e:	d13d      	bne.n	800430c <UART_WaitOnFlagUntilTimeout+0xac>
 8004290:	f3ef 8310 	mrs	r3, PRIMASK
 8004294:	62bb      	str	r3, [r7, #40]	; 0x28
 8004296:	6abb      	ldr	r3, [r7, #40]	; 0x28
 8004298:	647b      	str	r3, [r7, #68]	; 0x44
 800429a:	2301      	movs	r3, #1
 800429c:	62fb      	str	r3, [r7, #44]	; 0x2c
 800429e:	6afb      	ldr	r3, [r7, #44]	; 0x2c
 80042a0:	f383 8810 	msr	PRIMASK, r3
 80042a4:	46c0      	nop			; (mov r8, r8)
 80042a6:	68fb      	ldr	r3, [r7, #12]
 80042a8:	681b      	ldr	r3, [r3, #0]
 80042aa:	681a      	ldr	r2, [r3, #0]
 80042ac:	68fb      	ldr	r3, [r7, #12]
 80042ae:	681b      	ldr	r3, [r3, #0]
 80042b0:	494c      	ldr	r1, [pc, #304]	; (80043e4 <UART_WaitOnFlagUntilTimeout+0x184>)
 80042b2:	400a      	ands	r2, r1
 80042b4:	601a      	str	r2, [r3, #0]
 80042b6:	6c7b      	ldr	r3, [r7, #68]	; 0x44
 80042b8:	633b      	str	r3, [r7, #48]	; 0x30
 80042ba:	6b3b      	ldr	r3, [r7, #48]	; 0x30
 80042bc:	f383 8810 	msr	PRIMASK, r3
 80042c0:	46c0      	nop			; (mov r8, r8)
 80042c2:	f3ef 8310 	mrs	r3, PRIMASK
 80042c6:	637b      	str	r3, [r7, #52]	; 0x34
 80042c8:	6b7b      	ldr	r3, [r7, #52]	; 0x34
 80042ca:	643b      	str	r3, [r7, #64]	; 0x40
 80042cc:	2301      	movs	r3, #1
 80042ce:	63bb      	str	r3, [r7, #56]	; 0x38
 80042d0:	6bbb      	ldr	r3, [r7, #56]	; 0x38
 80042d2:	f383 8810 	msr	PRIMASK, r3
 80042d6:	46c0      	nop			; (mov r8, r8)
 80042d8:	68fb      	ldr	r3, [r7, #12]
 80042da:	681b      	ldr	r3, [r3, #0]
 80042dc:	689a      	ldr	r2, [r3, #8]
 80042de:	68fb      	ldr	r3, [r7, #12]
 80042e0:	681b      	ldr	r3, [r3, #0]
 80042e2:	2101      	movs	r1, #1
 80042e4:	438a      	bics	r2, r1
 80042e6:	609a      	str	r2, [r3, #8]
 80042e8:	6c3b      	ldr	r3, [r7, #64]	; 0x40
 80042ea:	63fb      	str	r3, [r7, #60]	; 0x3c
 80042ec:	6bfb      	ldr	r3, [r7, #60]	; 0x3c
 80042ee:	f383 8810 	msr	PRIMASK, r3
 80042f2:	46c0      	nop			; (mov r8, r8)
 80042f4:	68fb      	ldr	r3, [r7, #12]
 80042f6:	2220      	movs	r2, #32
 80042f8:	679a      	str	r2, [r3, #120]	; 0x78
 80042fa:	68fb      	ldr	r3, [r7, #12]
 80042fc:	2220      	movs	r2, #32
 80042fe:	67da      	str	r2, [r3, #124]	; 0x7c
 8004300:	68fb      	ldr	r3, [r7, #12]
 8004302:	2274      	movs	r2, #116	; 0x74
 8004304:	2100      	movs	r1, #0
 8004306:	5499      	strb	r1, [r3, r2]
 8004308:	2303      	movs	r3, #3
 800430a:	e067      	b.n	80043dc <UART_WaitOnFlagUntilTimeout+0x17c>
 800430c:	68fb      	ldr	r3, [r7, #12]
 800430e:	681b      	ldr	r3, [r3, #0]
 8004310:	681b      	ldr	r3, [r3, #0]
 8004312:	2204      	movs	r2, #4
 8004314:	4013      	ands	r3, r2
 8004316:	d050      	beq.n	80043ba <UART_WaitOnFlagUntilTimeout+0x15a>
 8004318:	68fb      	ldr	r3, [r7, #12]
 800431a:	681b      	ldr	r3, [r3, #0]
 800431c:	69da      	ldr	r2, [r3, #28]
 800431e:	2380      	movs	r3, #128	; 0x80
 8004320:	011b      	lsls	r3, r3, #4
 8004322:	401a      	ands	r2, r3
 8004324:	2380      	movs	r3, #128	; 0x80
 8004326:	011b      	lsls	r3, r3, #4
 8004328:	429a      	cmp	r2, r3
 800432a:	d146      	bne.n	80043ba <UART_WaitOnFlagUntilTimeout+0x15a>
 800432c:	68fb      	ldr	r3, [r7, #12]
 800432e:	681b      	ldr	r3, [r3, #0]
 8004330:	2280      	movs	r2, #128	; 0x80
 8004332:	0112      	lsls	r2, r2, #4
 8004334:	621a      	str	r2, [r3, #32]
 8004336:	f3ef 8310 	mrs	r3, PRIMASK
 800433a:	613b      	str	r3, [r7, #16]
 800433c:	693b      	ldr	r3, [r7, #16]
 800433e:	64fb      	str	r3, [r7, #76]	; 0x4c
 8004340:	2301      	movs	r3, #1
 8004342:	617b      	str	r3, [r7, #20]
 8004344:	697b      	ldr	r3, [r7, #20]
 8004346:	f383 8810 	msr	PRIMASK, r3
 800434a:	46c0      	nop			; (mov r8, r8)
 800434c:	68fb      	ldr	r3, [r7, #12]
 800434e:	681b      	ldr	r3, [r3, #0]
 8004350:	681a      	ldr	r2, [r3, #0]
 8004352:	68fb      	ldr	r3, [r7, #12]
 8004354:	681b      	ldr	r3, [r3, #0]
 8004356:	4923      	ldr	r1, [pc, #140]	; (80043e4 <UART_WaitOnFlagUntilTimeout+0x184>)
 8004358:	400a      	ands	r2, r1
 800435a:	601a      	str	r2, [r3, #0]
 800435c:	6cfb      	ldr	r3, [r7, #76]	; 0x4c
 800435e:	61bb      	str	r3, [r7, #24]
 8004360:	69bb      	ldr	r3, [r7, #24]
 8004362:	f383 8810 	msr	PRIMASK, r3
 8004366:	46c0      	nop			; (mov r8, r8)
 8004368:	f3ef 8310 	mrs	r3, PRIMASK
 800436c:	61fb      	str	r3, [r7, #28]
 800436e:	69fb      	ldr	r3, [r7, #28]
 8004370:	64bb      	str	r3, [r7, #72]	; 0x48
 8004372:	2301      	movs	r3, #1
 8004374:	623b      	str	r3, [r7, #32]
 8004376:	6a3b      	ldr	r3, [r7, #32]
 8004378:	f383 8810 	msr	PRIMASK, r3
 800437c:	46c0      	nop			; (mov r8, r8)
 800437e:	68fb      	ldr	r3, [r7, #12]
 8004380:	681b      	ldr	r3, [r3, #0]
 8004382:	689a      	ldr	r2, [r3, #8]
 8004384:	68fb      	ldr	r3, [r7, #12]
 8004386:	681b      	ldr	r3, [r3, #0]
 8004388:	2101      	movs	r1, #1
 800438a:	438a      	bics	r2, r1
 800438c:	609a      	str	r2, [r3, #8]
 800438e:	6cbb      	ldr	r3, [r7, #72]	; 0x48
 8004390:	627b      	str	r3, [r7, #36]	; 0x24
 8004392:	6a7b      	ldr	r3, [r7, #36]	; 0x24
 8004394:	f383 8810 	msr	PRIMASK, r3
 8004398:	46c0      	nop			; (mov r8, r8)
 800439a:	68fb      	ldr	r3, [r7, #12]
 800439c:	2220      	movs	r2, #32
 800439e:	679a      	str	r2, [r3, #120]	; 0x78
 80043a0:	68fb      	ldr	r3, [r7, #12]
 80043a2:	2220      	movs	r2, #32
 80043a4:	67da      	str	r2, [r3, #124]	; 0x7c
 80043a6:	68fb      	ldr	r3, [r7, #12]
 80043a8:	2280      	movs	r2, #128	; 0x80
 80043aa:	2120      	movs	r1, #32
 80043ac:	5099      	str	r1, [r3, r2]
 80043ae:	68fb      	ldr	r3, [r7, #12]
 80043b0:	2274      	movs	r2, #116	; 0x74
 80043b2:	2100      	movs	r1, #0
 80043b4:	5499      	strb	r1, [r3, r2]
 80043b6:	2303      	movs	r3, #3
 80043b8:	e010      	b.n	80043dc <UART_WaitOnFlagUntilTimeout+0x17c>
 80043ba:	68fb      	ldr	r3, [r7, #12]
 80043bc:	681b      	ldr	r3, [r3, #0]
 80043be:	69db      	ldr	r3, [r3, #28]
 80043c0:	68ba      	ldr	r2, [r7, #8]
 80043c2:	4013      	ands	r3, r2
 80043c4:	68ba      	ldr	r2, [r7, #8]
 80043c6:	1ad3      	subs	r3, r2, r3
 80043c8:	425a      	negs	r2, r3
 80043ca:	4153      	adcs	r3, r2
 80043cc:	b2db      	uxtb	r3, r3
 80043ce:	001a      	movs	r2, r3
 80043d0:	1dfb      	adds	r3, r7, #7
 80043d2:	781b      	ldrb	r3, [r3, #0]
 80043d4:	429a      	cmp	r2, r3
 80043d6:	d100      	bne.n	80043da <UART_WaitOnFlagUntilTimeout+0x17a>
 80043d8:	e74b      	b.n	8004272 <UART_WaitOnFlagUntilTimeout+0x12>
 80043da:	2300      	movs	r3, #0
 80043dc:	0018      	movs	r0, r3
 80043de:	46bd      	mov	sp, r7
 80043e0:	b014      	add	sp, #80	; 0x50
 80043e2:	bd80      	pop	{r7, pc}
 80043e4:	fffffe5f 	.word	0xfffffe5f

080043e8 <UART_EndRxTransfer>:
 80043e8:	b580      	push	{r7, lr}
 80043ea:	b08e      	sub	sp, #56	; 0x38
 80043ec:	af00      	add	r7, sp, #0
 80043ee:	6078      	str	r0, [r7, #4]
 80043f0:	f3ef 8310 	mrs	r3, PRIMASK
 80043f4:	617b      	str	r3, [r7, #20]
 80043f6:	697b      	ldr	r3, [r7, #20]
 80043f8:	637b      	str	r3, [r7, #52]	; 0x34
 80043fa:	2301      	movs	r3, #1
 80043fc:	61bb      	str	r3, [r7, #24]
 80043fe:	69bb      	ldr	r3, [r7, #24]
 8004400:	f383 8810 	msr	PRIMASK, r3
 8004404:	46c0      	nop			; (mov r8, r8)
 8004406:	687b      	ldr	r3, [r7, #4]
 8004408:	681b      	ldr	r3, [r3, #0]
 800440a:	681a      	ldr	r2, [r3, #0]
 800440c:	687b      	ldr	r3, [r7, #4]
 800440e:	681b      	ldr	r3, [r3, #0]
 8004410:	4925      	ldr	r1, [pc, #148]	; (80044a8 <UART_EndRxTransfer+0xc0>)
 8004412:	400a      	ands	r2, r1
 8004414:	601a      	str	r2, [r3, #0]
 8004416:	6b7b      	ldr	r3, [r7, #52]	; 0x34
 8004418:	61fb      	str	r3, [r7, #28]
 800441a:	69fb      	ldr	r3, [r7, #28]
 800441c:	f383 8810 	msr	PRIMASK, r3
 8004420:	46c0      	nop			; (mov r8, r8)
 8004422:	f3ef 8310 	mrs	r3, PRIMASK
 8004426:	623b      	str	r3, [r7, #32]
 8004428:	6a3b      	ldr	r3, [r7, #32]
 800442a:	633b      	str	r3, [r7, #48]	; 0x30
 800442c:	2301      	movs	r3, #1
 800442e:	627b      	str	r3, [r7, #36]	; 0x24
 8004430:	6a7b      	ldr	r3, [r7, #36]	; 0x24
 8004432:	f383 8810 	msr	PRIMASK, r3
 8004436:	46c0      	nop			; (mov r8, r8)
 8004438:	687b      	ldr	r3, [r7, #4]
 800443a:	681b      	ldr	r3, [r3, #0]
 800443c:	689a      	ldr	r2, [r3, #8]
 800443e:	687b      	ldr	r3, [r7, #4]
 8004440:	681b      	ldr	r3, [r3, #0]
 8004442:	2101      	movs	r1, #1
 8004444:	438a      	bics	r2, r1
 8004446:	609a      	str	r2, [r3, #8]
 8004448:	6b3b      	ldr	r3, [r7, #48]	; 0x30
 800444a:	62bb      	str	r3, [r7, #40]	; 0x28
 800444c:	6abb      	ldr	r3, [r7, #40]	; 0x28
 800444e:	f383 8810 	msr	PRIMASK, r3
 8004452:	46c0      	nop			; (mov r8, r8)
 8004454:	687b      	ldr	r3, [r7, #4]
 8004456:	6e1b      	ldr	r3, [r3, #96]	; 0x60
 8004458:	2b01      	cmp	r3, #1
 800445a:	d118      	bne.n	800448e <UART_EndRxTransfer+0xa6>
 800445c:	f3ef 8310 	mrs	r3, PRIMASK
 8004460:	60bb      	str	r3, [r7, #8]
 8004462:	68bb      	ldr	r3, [r7, #8]
 8004464:	62fb      	str	r3, [r7, #44]	; 0x2c
 8004466:	2301      	movs	r3, #1
 8004468:	60fb      	str	r3, [r7, #12]
 800446a:	68fb      	ldr	r3, [r7, #12]
 800446c:	f383 8810 	msr	PRIMASK, r3
 8004470:	46c0      	nop			; (mov r8, r8)
 8004472:	687b      	ldr	r3, [r7, #4]
 8004474:	681b      	ldr	r3, [r3, #0]
 8004476:	681a      	ldr	r2, [r3, #0]
 8004478:	687b      	ldr	r3, [r7, #4]
 800447a:	681b      	ldr	r3, [r3, #0]
 800447c:	2110      	movs	r1, #16
 800447e:	438a      	bics	r2, r1
 8004480:	601a      	str	r2, [r3, #0]
 8004482:	6afb      	ldr	r3, [r7, #44]	; 0x2c
 8004484:	613b      	str	r3, [r7, #16]
 8004486:	693b      	ldr	r3, [r7, #16]
 8004488:	f383 8810 	msr	PRIMASK, r3
 800448c:	46c0      	nop			; (mov r8, r8)
 800448e:	687b      	ldr	r3, [r7, #4]
 8004490:	2220      	movs	r2, #32
 8004492:	67da      	str	r2, [r3, #124]	; 0x7c
 8004494:	687b      	ldr	r3, [r7, #4]
 8004496:	2200      	movs	r2, #0
 8004498:	661a      	str	r2, [r3, #96]	; 0x60
 800449a:	687b      	ldr	r3, [r7, #4]
 800449c:	2200      	movs	r2, #0
 800449e:	665a      	str	r2, [r3, #100]	; 0x64
 80044a0:	46c0      	nop			; (mov r8, r8)
 80044a2:	46bd      	mov	sp, r7
 80044a4:	b00e      	add	sp, #56	; 0x38
 80044a6:	bd80      	pop	{r7, pc}
 80044a8:	fffffedf 	.word	0xfffffedf

080044ac <UART_DMAAbortOnError>:
 80044ac:	b580      	push	{r7, lr}
 80044ae:	b084      	sub	sp, #16
 80044b0:	af00      	add	r7, sp, #0
 80044b2:	6078      	str	r0, [r7, #4]
 80044b4:	687b      	ldr	r3, [r7, #4]
 80044b6:	6a5b      	ldr	r3, [r3, #36]	; 0x24
 80044b8:	60fb      	str	r3, [r7, #12]
 80044ba:	68fb      	ldr	r3, [r7, #12]
 80044bc:	225a      	movs	r2, #90	; 0x5a
 80044be:	2100      	movs	r1, #0
 80044c0:	5299      	strh	r1, [r3, r2]
 80044c2:	68fb      	ldr	r3, [r7, #12]
 80044c4:	2252      	movs	r2, #82	; 0x52
 80044c6:	2100      	movs	r1, #0
 80044c8:	5299      	strh	r1, [r3, r2]
 80044ca:	68fb      	ldr	r3, [r7, #12]
 80044cc:	0018      	movs	r0, r3
 80044ce:	f7ff fc77 	bl	8003dc0 <HAL_UART_ErrorCallback>
 80044d2:	46c0      	nop			; (mov r8, r8)
 80044d4:	46bd      	mov	sp, r7
 80044d6:	b004      	add	sp, #16
 80044d8:	bd80      	pop	{r7, pc}

080044da <UART_EndTransmit_IT>:
 80044da:	b580      	push	{r7, lr}
 80044dc:	b086      	sub	sp, #24
 80044de:	af00      	add	r7, sp, #0
 80044e0:	6078      	str	r0, [r7, #4]
 80044e2:	f3ef 8310 	mrs	r3, PRIMASK
 80044e6:	60bb      	str	r3, [r7, #8]
 80044e8:	68bb      	ldr	r3, [r7, #8]
 80044ea:	617b      	str	r3, [r7, #20]
 80044ec:	2301      	movs	r3, #1
 80044ee:	60fb      	str	r3, [r7, #12]
 80044f0:	68fb      	ldr	r3, [r7, #12]
 80044f2:	f383 8810 	msr	PRIMASK, r3
 80044f6:	46c0      	nop			; (mov r8, r8)
 80044f8:	687b      	ldr	r3, [r7, #4]
 80044fa:	681b      	ldr	r3, [r3, #0]
 80044fc:	681a      	ldr	r2, [r3, #0]
 80044fe:	687b      	ldr	r3, [r7, #4]
 8004500:	681b      	ldr	r3, [r3, #0]
 8004502:	2140      	movs	r1, #64	; 0x40
 8004504:	438a      	bics	r2, r1
 8004506:	601a      	str	r2, [r3, #0]
 8004508:	697b      	ldr	r3, [r7, #20]
 800450a:	613b      	str	r3, [r7, #16]
 800450c:	693b      	ldr	r3, [r7, #16]
 800450e:	f383 8810 	msr	PRIMASK, r3
 8004512:	46c0      	nop			; (mov r8, r8)
 8004514:	687b      	ldr	r3, [r7, #4]
 8004516:	2220      	movs	r2, #32
 8004518:	679a      	str	r2, [r3, #120]	; 0x78
 800451a:	687b      	ldr	r3, [r7, #4]
 800451c:	2200      	movs	r2, #0
 800451e:	669a      	str	r2, [r3, #104]	; 0x68
 8004520:	687b      	ldr	r3, [r7, #4]
 8004522:	0018      	movs	r0, r3
 8004524:	f7ff fc44 	bl	8003db0 <HAL_UART_TxCpltCallback>
 8004528:	46c0      	nop			; (mov r8, r8)
 800452a:	46bd      	mov	sp, r7
 800452c:	b006      	add	sp, #24
 800452e:	bd80      	pop	{r7, pc}

08004530 <HAL_UARTEx_WakeupCallback>:
 8004530:	b580      	push	{r7, lr}
 8004532:	b082      	sub	sp, #8
 8004534:	af00      	add	r7, sp, #0
 8004536:	6078      	str	r0, [r7, #4]
 8004538:	46c0      	nop			; (mov r8, r8)
 800453a:	46bd      	mov	sp, r7
 800453c:	b002      	add	sp, #8
 800453e:	bd80      	pop	{r7, pc}

08004540 <__errno>:
 8004540:	4b01      	ldr	r3, [pc, #4]	; (8004548 <__errno+0x8>)
 8004542:	6818      	ldr	r0, [r3, #0]
 8004544:	4770      	bx	lr
 8004546:	46c0      	nop			; (mov r8, r8)
 8004548:	20000010 	.word	0x20000010

0800454c <__libc_init_array>:
 800454c:	b570      	push	{r4, r5, r6, lr}
 800454e:	2600      	movs	r6, #0
 8004550:	4d0c      	ldr	r5, [pc, #48]	; (8004584 <__libc_init_array+0x38>)
 8004552:	4c0d      	ldr	r4, [pc, #52]	; (8004588 <__libc_init_array+0x3c>)
 8004554:	1b64      	subs	r4, r4, r5
 8004556:	10a4      	asrs	r4, r4, #2
 8004558:	42a6      	cmp	r6, r4
 800455a:	d109      	bne.n	8004570 <__libc_init_array+0x24>
 800455c:	2600      	movs	r6, #0
 800455e:	f000 fc8b 	bl	8004e78 <_init>
 8004562:	4d0a      	ldr	r5, [pc, #40]	; (800458c <__libc_init_array+0x40>)
 8004564:	4c0a      	ldr	r4, [pc, #40]	; (8004590 <__libc_init_array+0x44>)
 8004566:	1b64      	subs	r4, r4, r5
 8004568:	10a4      	asrs	r4, r4, #2
 800456a:	42a6      	cmp	r6, r4
 800456c:	d105      	bne.n	800457a <__libc_init_array+0x2e>
 800456e:	bd70      	pop	{r4, r5, r6, pc}
 8004570:	00b3      	lsls	r3, r6, #2
 8004572:	58eb      	ldr	r3, [r5, r3]
 8004574:	4798      	blx	r3
 8004576:	3601      	adds	r6, #1
 8004578:	e7ee      	b.n	8004558 <__libc_init_array+0xc>
 800457a:	00b3      	lsls	r3, r6, #2
 800457c:	58eb      	ldr	r3, [r5, r3]
 800457e:	4798      	blx	r3
 8004580:	3601      	adds	r6, #1
 8004582:	e7f2      	b.n	800456a <__libc_init_array+0x1e>
 8004584:	08004f28 	.word	0x08004f28
 8004588:	08004f28 	.word	0x08004f28
 800458c:	08004f28 	.word	0x08004f28
 8004590:	08004f2c 	.word	0x08004f2c

08004594 <memset>:
 8004594:	0003      	movs	r3, r0
 8004596:	1882      	adds	r2, r0, r2
 8004598:	4293      	cmp	r3, r2
 800459a:	d100      	bne.n	800459e <memset+0xa>
 800459c:	4770      	bx	lr
 800459e:	7019      	strb	r1, [r3, #0]
 80045a0:	3301      	adds	r3, #1
 80045a2:	e7f9      	b.n	8004598 <memset+0x4>

080045a4 <siprintf>:
 80045a4:	b40e      	push	{r1, r2, r3}
 80045a6:	b500      	push	{lr}
 80045a8:	490b      	ldr	r1, [pc, #44]	; (80045d8 <siprintf+0x34>)
 80045aa:	b09c      	sub	sp, #112	; 0x70
 80045ac:	ab1d      	add	r3, sp, #116	; 0x74
 80045ae:	9002      	str	r0, [sp, #8]
 80045b0:	9006      	str	r0, [sp, #24]
 80045b2:	9107      	str	r1, [sp, #28]
 80045b4:	9104      	str	r1, [sp, #16]
 80045b6:	4809      	ldr	r0, [pc, #36]	; (80045dc <siprintf+0x38>)
 80045b8:	4909      	ldr	r1, [pc, #36]	; (80045e0 <siprintf+0x3c>)
 80045ba:	cb04      	ldmia	r3!, {r2}
 80045bc:	9105      	str	r1, [sp, #20]
 80045be:	6800      	ldr	r0, [r0, #0]
 80045c0:	a902      	add	r1, sp, #8
 80045c2:	9301      	str	r3, [sp, #4]
 80045c4:	f000 f870 	bl	80046a8 <_svfiprintf_r>
 80045c8:	2300      	movs	r3, #0
 80045ca:	9a02      	ldr	r2, [sp, #8]
 80045cc:	7013      	strb	r3, [r2, #0]
 80045ce:	b01c      	add	sp, #112	; 0x70
 80045d0:	bc08      	pop	{r3}
 80045d2:	b003      	add	sp, #12
 80045d4:	4718      	bx	r3
 80045d6:	46c0      	nop			; (mov r8, r8)
 80045d8:	7fffffff 	.word	0x7fffffff
 80045dc:	20000010 	.word	0x20000010
 80045e0:	ffff0208 	.word	0xffff0208

080045e4 <__ssputs_r>:
 80045e4:	b5f0      	push	{r4, r5, r6, r7, lr}
 80045e6:	688e      	ldr	r6, [r1, #8]
 80045e8:	b085      	sub	sp, #20
 80045ea:	0007      	movs	r7, r0
 80045ec:	000c      	movs	r4, r1
 80045ee:	9203      	str	r2, [sp, #12]
 80045f0:	9301      	str	r3, [sp, #4]
 80045f2:	429e      	cmp	r6, r3
 80045f4:	d83c      	bhi.n	8004670 <__ssputs_r+0x8c>
 80045f6:	2390      	movs	r3, #144	; 0x90
 80045f8:	898a      	ldrh	r2, [r1, #12]
 80045fa:	00db      	lsls	r3, r3, #3
 80045fc:	421a      	tst	r2, r3
 80045fe:	d034      	beq.n	800466a <__ssputs_r+0x86>
 8004600:	6909      	ldr	r1, [r1, #16]
 8004602:	6823      	ldr	r3, [r4, #0]
 8004604:	6960      	ldr	r0, [r4, #20]
 8004606:	1a5b      	subs	r3, r3, r1
 8004608:	9302      	str	r3, [sp, #8]
 800460a:	2303      	movs	r3, #3
 800460c:	4343      	muls	r3, r0
 800460e:	0fdd      	lsrs	r5, r3, #31
 8004610:	18ed      	adds	r5, r5, r3
 8004612:	9b01      	ldr	r3, [sp, #4]
 8004614:	9802      	ldr	r0, [sp, #8]
 8004616:	3301      	adds	r3, #1
 8004618:	181b      	adds	r3, r3, r0
 800461a:	106d      	asrs	r5, r5, #1
 800461c:	42ab      	cmp	r3, r5
 800461e:	d900      	bls.n	8004622 <__ssputs_r+0x3e>
 8004620:	001d      	movs	r5, r3
 8004622:	0553      	lsls	r3, r2, #21
 8004624:	d532      	bpl.n	800468c <__ssputs_r+0xa8>
 8004626:	0029      	movs	r1, r5
 8004628:	0038      	movs	r0, r7
 800462a:	f000 fb53 	bl	8004cd4 <_malloc_r>
 800462e:	1e06      	subs	r6, r0, #0
 8004630:	d109      	bne.n	8004646 <__ssputs_r+0x62>
 8004632:	230c      	movs	r3, #12
 8004634:	603b      	str	r3, [r7, #0]
 8004636:	2340      	movs	r3, #64	; 0x40
 8004638:	2001      	movs	r0, #1
 800463a:	89a2      	ldrh	r2, [r4, #12]
 800463c:	4240      	negs	r0, r0
 800463e:	4313      	orrs	r3, r2
 8004640:	81a3      	strh	r3, [r4, #12]
 8004642:	b005      	add	sp, #20
 8004644:	bdf0      	pop	{r4, r5, r6, r7, pc}
 8004646:	9a02      	ldr	r2, [sp, #8]
 8004648:	6921      	ldr	r1, [r4, #16]
 800464a:	f000 faba 	bl	8004bc2 <memcpy>
 800464e:	89a3      	ldrh	r3, [r4, #12]
 8004650:	4a14      	ldr	r2, [pc, #80]	; (80046a4 <__ssputs_r+0xc0>)
 8004652:	401a      	ands	r2, r3
 8004654:	2380      	movs	r3, #128	; 0x80
 8004656:	4313      	orrs	r3, r2
 8004658:	81a3      	strh	r3, [r4, #12]
 800465a:	9b02      	ldr	r3, [sp, #8]
 800465c:	6126      	str	r6, [r4, #16]
 800465e:	18f6      	adds	r6, r6, r3
 8004660:	6026      	str	r6, [r4, #0]
 8004662:	6165      	str	r5, [r4, #20]
 8004664:	9e01      	ldr	r6, [sp, #4]
 8004666:	1aed      	subs	r5, r5, r3
 8004668:	60a5      	str	r5, [r4, #8]
 800466a:	9b01      	ldr	r3, [sp, #4]
 800466c:	429e      	cmp	r6, r3
 800466e:	d900      	bls.n	8004672 <__ssputs_r+0x8e>
 8004670:	9e01      	ldr	r6, [sp, #4]
 8004672:	0032      	movs	r2, r6
 8004674:	9903      	ldr	r1, [sp, #12]
 8004676:	6820      	ldr	r0, [r4, #0]
 8004678:	f000 faac 	bl	8004bd4 <memmove>
 800467c:	68a3      	ldr	r3, [r4, #8]
 800467e:	2000      	movs	r0, #0
 8004680:	1b9b      	subs	r3, r3, r6
 8004682:	60a3      	str	r3, [r4, #8]
 8004684:	6823      	ldr	r3, [r4, #0]
 8004686:	199e      	adds	r6, r3, r6
 8004688:	6026      	str	r6, [r4, #0]
 800468a:	e7da      	b.n	8004642 <__ssputs_r+0x5e>
 800468c:	002a      	movs	r2, r5
 800468e:	0038      	movs	r0, r7
 8004690:	f000 fb96 	bl	8004dc0 <_realloc_r>
 8004694:	1e06      	subs	r6, r0, #0
 8004696:	d1e0      	bne.n	800465a <__ssputs_r+0x76>
 8004698:	0038      	movs	r0, r7
 800469a:	6921      	ldr	r1, [r4, #16]
 800469c:	f000 faae 	bl	8004bfc <_free_r>
 80046a0:	e7c7      	b.n	8004632 <__ssputs_r+0x4e>
 80046a2:	46c0      	nop			; (mov r8, r8)
 80046a4:	fffffb7f 	.word	0xfffffb7f

080046a8 <_svfiprintf_r>:
 80046a8:	b5f0      	push	{r4, r5, r6, r7, lr}
 80046aa:	b0a1      	sub	sp, #132	; 0x84
 80046ac:	9003      	str	r0, [sp, #12]
 80046ae:	001d      	movs	r5, r3
 80046b0:	898b      	ldrh	r3, [r1, #12]
 80046b2:	000f      	movs	r7, r1
 80046b4:	0016      	movs	r6, r2
 80046b6:	061b      	lsls	r3, r3, #24
 80046b8:	d511      	bpl.n	80046de <_svfiprintf_r+0x36>
 80046ba:	690b      	ldr	r3, [r1, #16]
 80046bc:	2b00      	cmp	r3, #0
 80046be:	d10e      	bne.n	80046de <_svfiprintf_r+0x36>
 80046c0:	2140      	movs	r1, #64	; 0x40
 80046c2:	f000 fb07 	bl	8004cd4 <_malloc_r>
 80046c6:	6038      	str	r0, [r7, #0]
 80046c8:	6138      	str	r0, [r7, #16]
 80046ca:	2800      	cmp	r0, #0
 80046cc:	d105      	bne.n	80046da <_svfiprintf_r+0x32>
 80046ce:	230c      	movs	r3, #12
 80046d0:	9a03      	ldr	r2, [sp, #12]
 80046d2:	3801      	subs	r0, #1
 80046d4:	6013      	str	r3, [r2, #0]
 80046d6:	b021      	add	sp, #132	; 0x84
 80046d8:	bdf0      	pop	{r4, r5, r6, r7, pc}
 80046da:	2340      	movs	r3, #64	; 0x40
 80046dc:	617b      	str	r3, [r7, #20]
 80046de:	2300      	movs	r3, #0
 80046e0:	ac08      	add	r4, sp, #32
 80046e2:	6163      	str	r3, [r4, #20]
 80046e4:	3320      	adds	r3, #32
 80046e6:	7663      	strb	r3, [r4, #25]
 80046e8:	3310      	adds	r3, #16
 80046ea:	76a3      	strb	r3, [r4, #26]
 80046ec:	9507      	str	r5, [sp, #28]
 80046ee:	0035      	movs	r5, r6
 80046f0:	782b      	ldrb	r3, [r5, #0]
 80046f2:	2b00      	cmp	r3, #0
 80046f4:	d001      	beq.n	80046fa <_svfiprintf_r+0x52>
 80046f6:	2b25      	cmp	r3, #37	; 0x25
 80046f8:	d147      	bne.n	800478a <_svfiprintf_r+0xe2>
 80046fa:	1bab      	subs	r3, r5, r6
 80046fc:	9305      	str	r3, [sp, #20]
 80046fe:	42b5      	cmp	r5, r6
 8004700:	d00c      	beq.n	800471c <_svfiprintf_r+0x74>
 8004702:	0032      	movs	r2, r6
 8004704:	0039      	movs	r1, r7
 8004706:	9803      	ldr	r0, [sp, #12]
 8004708:	f7ff ff6c 	bl	80045e4 <__ssputs_r>
 800470c:	1c43      	adds	r3, r0, #1
 800470e:	d100      	bne.n	8004712 <_svfiprintf_r+0x6a>
 8004710:	e0ae      	b.n	8004870 <_svfiprintf_r+0x1c8>
 8004712:	6962      	ldr	r2, [r4, #20]
 8004714:	9b05      	ldr	r3, [sp, #20]
 8004716:	4694      	mov	ip, r2
 8004718:	4463      	add	r3, ip
 800471a:	6163      	str	r3, [r4, #20]
 800471c:	782b      	ldrb	r3, [r5, #0]
 800471e:	2b00      	cmp	r3, #0
 8004720:	d100      	bne.n	8004724 <_svfiprintf_r+0x7c>
 8004722:	e0a5      	b.n	8004870 <_svfiprintf_r+0x1c8>
 8004724:	2201      	movs	r2, #1
 8004726:	2300      	movs	r3, #0
 8004728:	4252      	negs	r2, r2
 800472a:	6062      	str	r2, [r4, #4]
 800472c:	a904      	add	r1, sp, #16
 800472e:	3254      	adds	r2, #84	; 0x54
 8004730:	1852      	adds	r2, r2, r1
 8004732:	1c6e      	adds	r6, r5, #1
 8004734:	6023      	str	r3, [r4, #0]
 8004736:	60e3      	str	r3, [r4, #12]
 8004738:	60a3      	str	r3, [r4, #8]
 800473a:	7013      	strb	r3, [r2, #0]
 800473c:	65a3      	str	r3, [r4, #88]	; 0x58
 800473e:	2205      	movs	r2, #5
 8004740:	7831      	ldrb	r1, [r6, #0]
 8004742:	4854      	ldr	r0, [pc, #336]	; (8004894 <_svfiprintf_r+0x1ec>)
 8004744:	f000 fa32 	bl	8004bac <memchr>
 8004748:	1c75      	adds	r5, r6, #1
 800474a:	2800      	cmp	r0, #0
 800474c:	d11f      	bne.n	800478e <_svfiprintf_r+0xe6>
 800474e:	6822      	ldr	r2, [r4, #0]
 8004750:	06d3      	lsls	r3, r2, #27
 8004752:	d504      	bpl.n	800475e <_svfiprintf_r+0xb6>
 8004754:	2353      	movs	r3, #83	; 0x53
 8004756:	a904      	add	r1, sp, #16
 8004758:	185b      	adds	r3, r3, r1
 800475a:	2120      	movs	r1, #32
 800475c:	7019      	strb	r1, [r3, #0]
 800475e:	0713      	lsls	r3, r2, #28
 8004760:	d504      	bpl.n	800476c <_svfiprintf_r+0xc4>
 8004762:	2353      	movs	r3, #83	; 0x53
 8004764:	a904      	add	r1, sp, #16
 8004766:	185b      	adds	r3, r3, r1
 8004768:	212b      	movs	r1, #43	; 0x2b
 800476a:	7019      	strb	r1, [r3, #0]
 800476c:	7833      	ldrb	r3, [r6, #0]
 800476e:	2b2a      	cmp	r3, #42	; 0x2a
 8004770:	d016      	beq.n	80047a0 <_svfiprintf_r+0xf8>
 8004772:	0035      	movs	r5, r6
 8004774:	2100      	movs	r1, #0
 8004776:	200a      	movs	r0, #10
 8004778:	68e3      	ldr	r3, [r4, #12]
 800477a:	782a      	ldrb	r2, [r5, #0]
 800477c:	1c6e      	adds	r6, r5, #1
 800477e:	3a30      	subs	r2, #48	; 0x30
 8004780:	2a09      	cmp	r2, #9
 8004782:	d94e      	bls.n	8004822 <_svfiprintf_r+0x17a>
 8004784:	2900      	cmp	r1, #0
 8004786:	d111      	bne.n	80047ac <_svfiprintf_r+0x104>
 8004788:	e017      	b.n	80047ba <_svfiprintf_r+0x112>
 800478a:	3501      	adds	r5, #1
 800478c:	e7b0      	b.n	80046f0 <_svfiprintf_r+0x48>
 800478e:	4b41      	ldr	r3, [pc, #260]	; (8004894 <_svfiprintf_r+0x1ec>)
 8004790:	6822      	ldr	r2, [r4, #0]
 8004792:	1ac0      	subs	r0, r0, r3
 8004794:	2301      	movs	r3, #1
 8004796:	4083      	lsls	r3, r0
 8004798:	4313      	orrs	r3, r2
 800479a:	002e      	movs	r6, r5
 800479c:	6023      	str	r3, [r4, #0]
 800479e:	e7ce      	b.n	800473e <_svfiprintf_r+0x96>
 80047a0:	9b07      	ldr	r3, [sp, #28]
 80047a2:	1d19      	adds	r1, r3, #4
 80047a4:	681b      	ldr	r3, [r3, #0]
 80047a6:	9107      	str	r1, [sp, #28]
 80047a8:	2b00      	cmp	r3, #0
 80047aa:	db01      	blt.n	80047b0 <_svfiprintf_r+0x108>
 80047ac:	930b      	str	r3, [sp, #44]	; 0x2c
 80047ae:	e004      	b.n	80047ba <_svfiprintf_r+0x112>
 80047b0:	425b      	negs	r3, r3
 80047b2:	60e3      	str	r3, [r4, #12]
 80047b4:	2302      	movs	r3, #2
 80047b6:	4313      	orrs	r3, r2
 80047b8:	6023      	str	r3, [r4, #0]
 80047ba:	782b      	ldrb	r3, [r5, #0]
 80047bc:	2b2e      	cmp	r3, #46	; 0x2e
 80047be:	d10a      	bne.n	80047d6 <_svfiprintf_r+0x12e>
 80047c0:	786b      	ldrb	r3, [r5, #1]
 80047c2:	2b2a      	cmp	r3, #42	; 0x2a
 80047c4:	d135      	bne.n	8004832 <_svfiprintf_r+0x18a>
 80047c6:	9b07      	ldr	r3, [sp, #28]
 80047c8:	3502      	adds	r5, #2
 80047ca:	1d1a      	adds	r2, r3, #4
 80047cc:	681b      	ldr	r3, [r3, #0]
 80047ce:	9207      	str	r2, [sp, #28]
 80047d0:	2b00      	cmp	r3, #0
 80047d2:	db2b      	blt.n	800482c <_svfiprintf_r+0x184>
 80047d4:	9309      	str	r3, [sp, #36]	; 0x24
 80047d6:	4e30      	ldr	r6, [pc, #192]	; (8004898 <_svfiprintf_r+0x1f0>)
 80047d8:	2203      	movs	r2, #3
 80047da:	0030      	movs	r0, r6
 80047dc:	7829      	ldrb	r1, [r5, #0]
 80047de:	f000 f9e5 	bl	8004bac <memchr>
 80047e2:	2800      	cmp	r0, #0
 80047e4:	d006      	beq.n	80047f4 <_svfiprintf_r+0x14c>
 80047e6:	2340      	movs	r3, #64	; 0x40
 80047e8:	1b80      	subs	r0, r0, r6
 80047ea:	4083      	lsls	r3, r0
 80047ec:	6822      	ldr	r2, [r4, #0]
 80047ee:	3501      	adds	r5, #1
 80047f0:	4313      	orrs	r3, r2
 80047f2:	6023      	str	r3, [r4, #0]
 80047f4:	7829      	ldrb	r1, [r5, #0]
 80047f6:	2206      	movs	r2, #6
 80047f8:	4828      	ldr	r0, [pc, #160]	; (800489c <_svfiprintf_r+0x1f4>)
 80047fa:	1c6e      	adds	r6, r5, #1
 80047fc:	7621      	strb	r1, [r4, #24]
 80047fe:	f000 f9d5 	bl	8004bac <memchr>
 8004802:	2800      	cmp	r0, #0
 8004804:	d03c      	beq.n	8004880 <_svfiprintf_r+0x1d8>
 8004806:	4b26      	ldr	r3, [pc, #152]	; (80048a0 <_svfiprintf_r+0x1f8>)
 8004808:	2b00      	cmp	r3, #0
 800480a:	d125      	bne.n	8004858 <_svfiprintf_r+0x1b0>
 800480c:	2207      	movs	r2, #7
 800480e:	9b07      	ldr	r3, [sp, #28]
 8004810:	3307      	adds	r3, #7
 8004812:	4393      	bics	r3, r2
 8004814:	3308      	adds	r3, #8
 8004816:	9307      	str	r3, [sp, #28]
 8004818:	6963      	ldr	r3, [r4, #20]
 800481a:	9a04      	ldr	r2, [sp, #16]
 800481c:	189b      	adds	r3, r3, r2
 800481e:	6163      	str	r3, [r4, #20]
 8004820:	e765      	b.n	80046ee <_svfiprintf_r+0x46>
 8004822:	4343      	muls	r3, r0
 8004824:	0035      	movs	r5, r6
 8004826:	2101      	movs	r1, #1
 8004828:	189b      	adds	r3, r3, r2
 800482a:	e7a6      	b.n	800477a <_svfiprintf_r+0xd2>
 800482c:	2301      	movs	r3, #1
 800482e:	425b      	negs	r3, r3
 8004830:	e7d0      	b.n	80047d4 <_svfiprintf_r+0x12c>
 8004832:	2300      	movs	r3, #0
 8004834:	200a      	movs	r0, #10
 8004836:	001a      	movs	r2, r3
 8004838:	3501      	adds	r5, #1
 800483a:	6063      	str	r3, [r4, #4]
 800483c:	7829      	ldrb	r1, [r5, #0]
 800483e:	1c6e      	adds	r6, r5, #1
 8004840:	3930      	subs	r1, #48	; 0x30
 8004842:	2909      	cmp	r1, #9
 8004844:	d903      	bls.n	800484e <_svfiprintf_r+0x1a6>
 8004846:	2b00      	cmp	r3, #0
 8004848:	d0c5      	beq.n	80047d6 <_svfiprintf_r+0x12e>
 800484a:	9209      	str	r2, [sp, #36]	; 0x24
 800484c:	e7c3      	b.n	80047d6 <_svfiprintf_r+0x12e>
 800484e:	4342      	muls	r2, r0
 8004850:	0035      	movs	r5, r6
 8004852:	2301      	movs	r3, #1
 8004854:	1852      	adds	r2, r2, r1
 8004856:	e7f1      	b.n	800483c <_svfiprintf_r+0x194>
 8004858:	ab07      	add	r3, sp, #28
 800485a:	9300      	str	r3, [sp, #0]
 800485c:	003a      	movs	r2, r7
 800485e:	0021      	movs	r1, r4
 8004860:	4b10      	ldr	r3, [pc, #64]	; (80048a4 <_svfiprintf_r+0x1fc>)
 8004862:	9803      	ldr	r0, [sp, #12]
 8004864:	e000      	b.n	8004868 <_svfiprintf_r+0x1c0>
 8004866:	bf00      	nop
 8004868:	9004      	str	r0, [sp, #16]
 800486a:	9b04      	ldr	r3, [sp, #16]
 800486c:	3301      	adds	r3, #1
 800486e:	d1d3      	bne.n	8004818 <_svfiprintf_r+0x170>
 8004870:	89bb      	ldrh	r3, [r7, #12]
 8004872:	980d      	ldr	r0, [sp, #52]	; 0x34
 8004874:	065b      	lsls	r3, r3, #25
 8004876:	d400      	bmi.n	800487a <_svfiprintf_r+0x1d2>
 8004878:	e72d      	b.n	80046d6 <_svfiprintf_r+0x2e>
 800487a:	2001      	movs	r0, #1
 800487c:	4240      	negs	r0, r0
 800487e:	e72a      	b.n	80046d6 <_svfiprintf_r+0x2e>
 8004880:	ab07      	add	r3, sp, #28
 8004882:	9300      	str	r3, [sp, #0]
 8004884:	003a      	movs	r2, r7
 8004886:	0021      	movs	r1, r4
 8004888:	4b06      	ldr	r3, [pc, #24]	; (80048a4 <_svfiprintf_r+0x1fc>)
 800488a:	9803      	ldr	r0, [sp, #12]
 800488c:	f000 f87c 	bl	8004988 <_printf_i>
 8004890:	e7ea      	b.n	8004868 <_svfiprintf_r+0x1c0>
 8004892:	46c0      	nop			; (mov r8, r8)
 8004894:	08004ef4 	.word	0x08004ef4
 8004898:	08004efa 	.word	0x08004efa
 800489c:	08004efe 	.word	0x08004efe
 80048a0:	00000000 	.word	0x00000000
 80048a4:	080045e5 	.word	0x080045e5

080048a8 <_printf_common>:
 80048a8:	b5f7      	push	{r0, r1, r2, r4, r5, r6, r7, lr}
 80048aa:	0015      	movs	r5, r2
 80048ac:	9301      	str	r3, [sp, #4]
 80048ae:	688a      	ldr	r2, [r1, #8]
 80048b0:	690b      	ldr	r3, [r1, #16]
 80048b2:	000c      	movs	r4, r1
 80048b4:	9000      	str	r0, [sp, #0]
 80048b6:	4293      	cmp	r3, r2
 80048b8:	da00      	bge.n	80048bc <_printf_common+0x14>
 80048ba:	0013      	movs	r3, r2
 80048bc:	0022      	movs	r2, r4
 80048be:	602b      	str	r3, [r5, #0]
 80048c0:	3243      	adds	r2, #67	; 0x43
 80048c2:	7812      	ldrb	r2, [r2, #0]
 80048c4:	2a00      	cmp	r2, #0
 80048c6:	d001      	beq.n	80048cc <_printf_common+0x24>
 80048c8:	3301      	adds	r3, #1
 80048ca:	602b      	str	r3, [r5, #0]
 80048cc:	6823      	ldr	r3, [r4, #0]
 80048ce:	069b      	lsls	r3, r3, #26
 80048d0:	d502      	bpl.n	80048d8 <_printf_common+0x30>
 80048d2:	682b      	ldr	r3, [r5, #0]
 80048d4:	3302      	adds	r3, #2
 80048d6:	602b      	str	r3, [r5, #0]
 80048d8:	6822      	ldr	r2, [r4, #0]
 80048da:	2306      	movs	r3, #6
 80048dc:	0017      	movs	r7, r2
 80048de:	401f      	ands	r7, r3
 80048e0:	421a      	tst	r2, r3
 80048e2:	d027      	beq.n	8004934 <_printf_common+0x8c>
 80048e4:	0023      	movs	r3, r4
 80048e6:	3343      	adds	r3, #67	; 0x43
 80048e8:	781b      	ldrb	r3, [r3, #0]
 80048ea:	1e5a      	subs	r2, r3, #1
 80048ec:	4193      	sbcs	r3, r2
 80048ee:	6822      	ldr	r2, [r4, #0]
 80048f0:	0692      	lsls	r2, r2, #26
 80048f2:	d430      	bmi.n	8004956 <_printf_common+0xae>
 80048f4:	0022      	movs	r2, r4
 80048f6:	9901      	ldr	r1, [sp, #4]
 80048f8:	9800      	ldr	r0, [sp, #0]
 80048fa:	9e08      	ldr	r6, [sp, #32]
 80048fc:	3243      	adds	r2, #67	; 0x43
 80048fe:	47b0      	blx	r6
 8004900:	1c43      	adds	r3, r0, #1
 8004902:	d025      	beq.n	8004950 <_printf_common+0xa8>
 8004904:	2306      	movs	r3, #6
 8004906:	6820      	ldr	r0, [r4, #0]
 8004908:	682a      	ldr	r2, [r5, #0]
 800490a:	68e1      	ldr	r1, [r4, #12]
 800490c:	2500      	movs	r5, #0
 800490e:	4003      	ands	r3, r0
 8004910:	2b04      	cmp	r3, #4
 8004912:	d103      	bne.n	800491c <_printf_common+0x74>
 8004914:	1a8d      	subs	r5, r1, r2
 8004916:	43eb      	mvns	r3, r5
 8004918:	17db      	asrs	r3, r3, #31
 800491a:	401d      	ands	r5, r3
 800491c:	68a3      	ldr	r3, [r4, #8]
 800491e:	6922      	ldr	r2, [r4, #16]
 8004920:	4293      	cmp	r3, r2
 8004922:	dd01      	ble.n	8004928 <_printf_common+0x80>
 8004924:	1a9b      	subs	r3, r3, r2
 8004926:	18ed      	adds	r5, r5, r3
 8004928:	2700      	movs	r7, #0
 800492a:	42bd      	cmp	r5, r7
 800492c:	d120      	bne.n	8004970 <_printf_common+0xc8>
 800492e:	2000      	movs	r0, #0
 8004930:	e010      	b.n	8004954 <_printf_common+0xac>
 8004932:	3701      	adds	r7, #1
 8004934:	68e3      	ldr	r3, [r4, #12]
 8004936:	682a      	ldr	r2, [r5, #0]
 8004938:	1a9b      	subs	r3, r3, r2
 800493a:	42bb      	cmp	r3, r7
 800493c:	ddd2      	ble.n	80048e4 <_printf_common+0x3c>
 800493e:	0022      	movs	r2, r4
 8004940:	2301      	movs	r3, #1
 8004942:	9901      	ldr	r1, [sp, #4]
 8004944:	9800      	ldr	r0, [sp, #0]
 8004946:	9e08      	ldr	r6, [sp, #32]
 8004948:	3219      	adds	r2, #25
 800494a:	47b0      	blx	r6
 800494c:	1c43      	adds	r3, r0, #1
 800494e:	d1f0      	bne.n	8004932 <_printf_common+0x8a>
 8004950:	2001      	movs	r0, #1
 8004952:	4240      	negs	r0, r0
 8004954:	bdfe      	pop	{r1, r2, r3, r4, r5, r6, r7, pc}
 8004956:	2030      	movs	r0, #48	; 0x30
 8004958:	18e1      	adds	r1, r4, r3
 800495a:	3143      	adds	r1, #67	; 0x43
 800495c:	7008      	strb	r0, [r1, #0]
 800495e:	0021      	movs	r1, r4
 8004960:	1c5a      	adds	r2, r3, #1
 8004962:	3145      	adds	r1, #69	; 0x45
 8004964:	7809      	ldrb	r1, [r1, #0]
 8004966:	18a2      	adds	r2, r4, r2
 8004968:	3243      	adds	r2, #67	; 0x43
 800496a:	3302      	adds	r3, #2
 800496c:	7011      	strb	r1, [r2, #0]
 800496e:	e7c1      	b.n	80048f4 <_printf_common+0x4c>
 8004970:	0022      	movs	r2, r4
 8004972:	2301      	movs	r3, #1
 8004974:	9901      	ldr	r1, [sp, #4]
 8004976:	9800      	ldr	r0, [sp, #0]
 8004978:	9e08      	ldr	r6, [sp, #32]
 800497a:	321a      	adds	r2, #26
 800497c:	47b0      	blx	r6
 800497e:	1c43      	adds	r3, r0, #1
 8004980:	d0e6      	beq.n	8004950 <_printf_common+0xa8>
 8004982:	3701      	adds	r7, #1
 8004984:	e7d1      	b.n	800492a <_printf_common+0x82>
	...

08004988 <_printf_i>:
 8004988:	b5f0      	push	{r4, r5, r6, r7, lr}
 800498a:	b08b      	sub	sp, #44	; 0x2c
 800498c:	9206      	str	r2, [sp, #24]
 800498e:	000a      	movs	r2, r1
 8004990:	3243      	adds	r2, #67	; 0x43
 8004992:	9307      	str	r3, [sp, #28]
 8004994:	9005      	str	r0, [sp, #20]
 8004996:	9204      	str	r2, [sp, #16]
 8004998:	7e0a      	ldrb	r2, [r1, #24]
 800499a:	000c      	movs	r4, r1
 800499c:	9b10      	ldr	r3, [sp, #64]	; 0x40
 800499e:	2a78      	cmp	r2, #120	; 0x78
 80049a0:	d807      	bhi.n	80049b2 <_printf_i+0x2a>
 80049a2:	2a62      	cmp	r2, #98	; 0x62
 80049a4:	d809      	bhi.n	80049ba <_printf_i+0x32>
 80049a6:	2a00      	cmp	r2, #0
 80049a8:	d100      	bne.n	80049ac <_printf_i+0x24>
 80049aa:	e0c1      	b.n	8004b30 <_printf_i+0x1a8>
 80049ac:	2a58      	cmp	r2, #88	; 0x58
 80049ae:	d100      	bne.n	80049b2 <_printf_i+0x2a>
 80049b0:	e08c      	b.n	8004acc <_printf_i+0x144>
 80049b2:	0026      	movs	r6, r4
 80049b4:	3642      	adds	r6, #66	; 0x42
 80049b6:	7032      	strb	r2, [r6, #0]
 80049b8:	e022      	b.n	8004a00 <_printf_i+0x78>
 80049ba:	0010      	movs	r0, r2
 80049bc:	3863      	subs	r0, #99	; 0x63
 80049be:	2815      	cmp	r0, #21
 80049c0:	d8f7      	bhi.n	80049b2 <_printf_i+0x2a>
 80049c2:	f7fb fba1 	bl	8000108 <__gnu_thumb1_case_shi>
 80049c6:	0016      	.short	0x0016
 80049c8:	fff6001f 	.word	0xfff6001f
 80049cc:	fff6fff6 	.word	0xfff6fff6
 80049d0:	001ffff6 	.word	0x001ffff6
 80049d4:	fff6fff6 	.word	0xfff6fff6
 80049d8:	fff6fff6 	.word	0xfff6fff6
 80049dc:	003600a8 	.word	0x003600a8
 80049e0:	fff6009a 	.word	0xfff6009a
 80049e4:	00b9fff6 	.word	0x00b9fff6
 80049e8:	0036fff6 	.word	0x0036fff6
 80049ec:	fff6fff6 	.word	0xfff6fff6
 80049f0:	009e      	.short	0x009e
 80049f2:	0026      	movs	r6, r4
 80049f4:	681a      	ldr	r2, [r3, #0]
 80049f6:	3642      	adds	r6, #66	; 0x42
 80049f8:	1d11      	adds	r1, r2, #4
 80049fa:	6019      	str	r1, [r3, #0]
 80049fc:	6813      	ldr	r3, [r2, #0]
 80049fe:	7033      	strb	r3, [r6, #0]
 8004a00:	2301      	movs	r3, #1
 8004a02:	e0a7      	b.n	8004b54 <_printf_i+0x1cc>
 8004a04:	6808      	ldr	r0, [r1, #0]
 8004a06:	6819      	ldr	r1, [r3, #0]
 8004a08:	1d0a      	adds	r2, r1, #4
 8004a0a:	0605      	lsls	r5, r0, #24
 8004a0c:	d50b      	bpl.n	8004a26 <_printf_i+0x9e>
 8004a0e:	680d      	ldr	r5, [r1, #0]
 8004a10:	601a      	str	r2, [r3, #0]
 8004a12:	2d00      	cmp	r5, #0
 8004a14:	da03      	bge.n	8004a1e <_printf_i+0x96>
 8004a16:	232d      	movs	r3, #45	; 0x2d
 8004a18:	9a04      	ldr	r2, [sp, #16]
 8004a1a:	426d      	negs	r5, r5
 8004a1c:	7013      	strb	r3, [r2, #0]
 8004a1e:	4b61      	ldr	r3, [pc, #388]	; (8004ba4 <_printf_i+0x21c>)
 8004a20:	270a      	movs	r7, #10
 8004a22:	9303      	str	r3, [sp, #12]
 8004a24:	e01b      	b.n	8004a5e <_printf_i+0xd6>
 8004a26:	680d      	ldr	r5, [r1, #0]
 8004a28:	601a      	str	r2, [r3, #0]
 8004a2a:	0641      	lsls	r1, r0, #25
 8004a2c:	d5f1      	bpl.n	8004a12 <_printf_i+0x8a>
 8004a2e:	b22d      	sxth	r5, r5
 8004a30:	e7ef      	b.n	8004a12 <_printf_i+0x8a>
 8004a32:	680d      	ldr	r5, [r1, #0]
 8004a34:	6819      	ldr	r1, [r3, #0]
 8004a36:	1d08      	adds	r0, r1, #4
 8004a38:	6018      	str	r0, [r3, #0]
 8004a3a:	062e      	lsls	r6, r5, #24
 8004a3c:	d501      	bpl.n	8004a42 <_printf_i+0xba>
 8004a3e:	680d      	ldr	r5, [r1, #0]
 8004a40:	e003      	b.n	8004a4a <_printf_i+0xc2>
 8004a42:	066d      	lsls	r5, r5, #25
 8004a44:	d5fb      	bpl.n	8004a3e <_printf_i+0xb6>
 8004a46:	680d      	ldr	r5, [r1, #0]
 8004a48:	b2ad      	uxth	r5, r5
 8004a4a:	4b56      	ldr	r3, [pc, #344]	; (8004ba4 <_printf_i+0x21c>)
 8004a4c:	2708      	movs	r7, #8
 8004a4e:	9303      	str	r3, [sp, #12]
 8004a50:	2a6f      	cmp	r2, #111	; 0x6f
 8004a52:	d000      	beq.n	8004a56 <_printf_i+0xce>
 8004a54:	3702      	adds	r7, #2
 8004a56:	0023      	movs	r3, r4
 8004a58:	2200      	movs	r2, #0
 8004a5a:	3343      	adds	r3, #67	; 0x43
 8004a5c:	701a      	strb	r2, [r3, #0]
 8004a5e:	6863      	ldr	r3, [r4, #4]
 8004a60:	60a3      	str	r3, [r4, #8]
 8004a62:	2b00      	cmp	r3, #0
 8004a64:	db03      	blt.n	8004a6e <_printf_i+0xe6>
 8004a66:	2204      	movs	r2, #4
 8004a68:	6821      	ldr	r1, [r4, #0]
 8004a6a:	4391      	bics	r1, r2
 8004a6c:	6021      	str	r1, [r4, #0]
 8004a6e:	2d00      	cmp	r5, #0
 8004a70:	d102      	bne.n	8004a78 <_printf_i+0xf0>
 8004a72:	9e04      	ldr	r6, [sp, #16]
 8004a74:	2b00      	cmp	r3, #0
 8004a76:	d00c      	beq.n	8004a92 <_printf_i+0x10a>
 8004a78:	9e04      	ldr	r6, [sp, #16]
 8004a7a:	0028      	movs	r0, r5
 8004a7c:	0039      	movs	r1, r7
 8004a7e:	f7fb fbd3 	bl	8000228 <__aeabi_uidivmod>
 8004a82:	9b03      	ldr	r3, [sp, #12]
 8004a84:	3e01      	subs	r6, #1
 8004a86:	5c5b      	ldrb	r3, [r3, r1]
 8004a88:	7033      	strb	r3, [r6, #0]
 8004a8a:	002b      	movs	r3, r5
 8004a8c:	0005      	movs	r5, r0
 8004a8e:	429f      	cmp	r7, r3
 8004a90:	d9f3      	bls.n	8004a7a <_printf_i+0xf2>
 8004a92:	2f08      	cmp	r7, #8
 8004a94:	d109      	bne.n	8004aaa <_printf_i+0x122>
 8004a96:	6823      	ldr	r3, [r4, #0]
 8004a98:	07db      	lsls	r3, r3, #31
 8004a9a:	d506      	bpl.n	8004aaa <_printf_i+0x122>
 8004a9c:	6863      	ldr	r3, [r4, #4]
 8004a9e:	6922      	ldr	r2, [r4, #16]
 8004aa0:	4293      	cmp	r3, r2
 8004aa2:	dc02      	bgt.n	8004aaa <_printf_i+0x122>
 8004aa4:	2330      	movs	r3, #48	; 0x30
 8004aa6:	3e01      	subs	r6, #1
 8004aa8:	7033      	strb	r3, [r6, #0]
 8004aaa:	9b04      	ldr	r3, [sp, #16]
 8004aac:	1b9b      	subs	r3, r3, r6
 8004aae:	6123      	str	r3, [r4, #16]
 8004ab0:	9b07      	ldr	r3, [sp, #28]
 8004ab2:	0021      	movs	r1, r4
 8004ab4:	9300      	str	r3, [sp, #0]
 8004ab6:	9805      	ldr	r0, [sp, #20]
 8004ab8:	9b06      	ldr	r3, [sp, #24]
 8004aba:	aa09      	add	r2, sp, #36	; 0x24
 8004abc:	f7ff fef4 	bl	80048a8 <_printf_common>
 8004ac0:	1c43      	adds	r3, r0, #1
 8004ac2:	d14c      	bne.n	8004b5e <_printf_i+0x1d6>
 8004ac4:	2001      	movs	r0, #1
 8004ac6:	4240      	negs	r0, r0
 8004ac8:	b00b      	add	sp, #44	; 0x2c
 8004aca:	bdf0      	pop	{r4, r5, r6, r7, pc}
 8004acc:	3145      	adds	r1, #69	; 0x45
 8004ace:	700a      	strb	r2, [r1, #0]
 8004ad0:	4a34      	ldr	r2, [pc, #208]	; (8004ba4 <_printf_i+0x21c>)
 8004ad2:	9203      	str	r2, [sp, #12]
 8004ad4:	681a      	ldr	r2, [r3, #0]
 8004ad6:	6821      	ldr	r1, [r4, #0]
 8004ad8:	ca20      	ldmia	r2!, {r5}
 8004ada:	601a      	str	r2, [r3, #0]
 8004adc:	0608      	lsls	r0, r1, #24
 8004ade:	d516      	bpl.n	8004b0e <_printf_i+0x186>
 8004ae0:	07cb      	lsls	r3, r1, #31
 8004ae2:	d502      	bpl.n	8004aea <_printf_i+0x162>
 8004ae4:	2320      	movs	r3, #32
 8004ae6:	4319      	orrs	r1, r3
 8004ae8:	6021      	str	r1, [r4, #0]
 8004aea:	2710      	movs	r7, #16
 8004aec:	2d00      	cmp	r5, #0
 8004aee:	d1b2      	bne.n	8004a56 <_printf_i+0xce>
 8004af0:	2320      	movs	r3, #32
 8004af2:	6822      	ldr	r2, [r4, #0]
 8004af4:	439a      	bics	r2, r3
 8004af6:	6022      	str	r2, [r4, #0]
 8004af8:	e7ad      	b.n	8004a56 <_printf_i+0xce>
 8004afa:	2220      	movs	r2, #32
 8004afc:	6809      	ldr	r1, [r1, #0]
 8004afe:	430a      	orrs	r2, r1
 8004b00:	6022      	str	r2, [r4, #0]
 8004b02:	0022      	movs	r2, r4
 8004b04:	2178      	movs	r1, #120	; 0x78
 8004b06:	3245      	adds	r2, #69	; 0x45
 8004b08:	7011      	strb	r1, [r2, #0]
 8004b0a:	4a27      	ldr	r2, [pc, #156]	; (8004ba8 <_printf_i+0x220>)
 8004b0c:	e7e1      	b.n	8004ad2 <_printf_i+0x14a>
 8004b0e:	0648      	lsls	r0, r1, #25
 8004b10:	d5e6      	bpl.n	8004ae0 <_printf_i+0x158>
 8004b12:	b2ad      	uxth	r5, r5
 8004b14:	e7e4      	b.n	8004ae0 <_printf_i+0x158>
 8004b16:	681a      	ldr	r2, [r3, #0]
 8004b18:	680d      	ldr	r5, [r1, #0]
 8004b1a:	1d10      	adds	r0, r2, #4
 8004b1c:	6949      	ldr	r1, [r1, #20]
 8004b1e:	6018      	str	r0, [r3, #0]
 8004b20:	6813      	ldr	r3, [r2, #0]
 8004b22:	062e      	lsls	r6, r5, #24
 8004b24:	d501      	bpl.n	8004b2a <_printf_i+0x1a2>
 8004b26:	6019      	str	r1, [r3, #0]
 8004b28:	e002      	b.n	8004b30 <_printf_i+0x1a8>
 8004b2a:	066d      	lsls	r5, r5, #25
 8004b2c:	d5fb      	bpl.n	8004b26 <_printf_i+0x19e>
 8004b2e:	8019      	strh	r1, [r3, #0]
 8004b30:	2300      	movs	r3, #0
 8004b32:	9e04      	ldr	r6, [sp, #16]
 8004b34:	6123      	str	r3, [r4, #16]
 8004b36:	e7bb      	b.n	8004ab0 <_printf_i+0x128>
 8004b38:	681a      	ldr	r2, [r3, #0]
 8004b3a:	1d11      	adds	r1, r2, #4
 8004b3c:	6019      	str	r1, [r3, #0]
 8004b3e:	6816      	ldr	r6, [r2, #0]
 8004b40:	2100      	movs	r1, #0
 8004b42:	0030      	movs	r0, r6
 8004b44:	6862      	ldr	r2, [r4, #4]
 8004b46:	f000 f831 	bl	8004bac <memchr>
 8004b4a:	2800      	cmp	r0, #0
 8004b4c:	d001      	beq.n	8004b52 <_printf_i+0x1ca>
 8004b4e:	1b80      	subs	r0, r0, r6
 8004b50:	6060      	str	r0, [r4, #4]
 8004b52:	6863      	ldr	r3, [r4, #4]
 8004b54:	6123      	str	r3, [r4, #16]
 8004b56:	2300      	movs	r3, #0
 8004b58:	9a04      	ldr	r2, [sp, #16]
 8004b5a:	7013      	strb	r3, [r2, #0]
 8004b5c:	e7a8      	b.n	8004ab0 <_printf_i+0x128>
 8004b5e:	6923      	ldr	r3, [r4, #16]
 8004b60:	0032      	movs	r2, r6
 8004b62:	9906      	ldr	r1, [sp, #24]
 8004b64:	9805      	ldr	r0, [sp, #20]
 8004b66:	9d07      	ldr	r5, [sp, #28]
 8004b68:	47a8      	blx	r5
 8004b6a:	1c43      	adds	r3, r0, #1
 8004b6c:	d0aa      	beq.n	8004ac4 <_printf_i+0x13c>
 8004b6e:	6823      	ldr	r3, [r4, #0]
 8004b70:	079b      	lsls	r3, r3, #30
 8004b72:	d415      	bmi.n	8004ba0 <_printf_i+0x218>
 8004b74:	9b09      	ldr	r3, [sp, #36]	; 0x24
 8004b76:	68e0      	ldr	r0, [r4, #12]
 8004b78:	4298      	cmp	r0, r3
 8004b7a:	daa5      	bge.n	8004ac8 <_printf_i+0x140>
 8004b7c:	0018      	movs	r0, r3
 8004b7e:	e7a3      	b.n	8004ac8 <_printf_i+0x140>
 8004b80:	0022      	movs	r2, r4
 8004b82:	2301      	movs	r3, #1
 8004b84:	9906      	ldr	r1, [sp, #24]
 8004b86:	9805      	ldr	r0, [sp, #20]
 8004b88:	9e07      	ldr	r6, [sp, #28]
 8004b8a:	3219      	adds	r2, #25
 8004b8c:	47b0      	blx	r6
 8004b8e:	1c43      	adds	r3, r0, #1
 8004b90:	d098      	beq.n	8004ac4 <_printf_i+0x13c>
 8004b92:	3501      	adds	r5, #1
 8004b94:	68e3      	ldr	r3, [r4, #12]
 8004b96:	9a09      	ldr	r2, [sp, #36]	; 0x24
 8004b98:	1a9b      	subs	r3, r3, r2
 8004b9a:	42ab      	cmp	r3, r5
 8004b9c:	dcf0      	bgt.n	8004b80 <_printf_i+0x1f8>
 8004b9e:	e7e9      	b.n	8004b74 <_printf_i+0x1ec>
 8004ba0:	2500      	movs	r5, #0
 8004ba2:	e7f7      	b.n	8004b94 <_printf_i+0x20c>
 8004ba4:	08004f05 	.word	0x08004f05
 8004ba8:	08004f16 	.word	0x08004f16

08004bac <memchr>:
 8004bac:	b2c9      	uxtb	r1, r1
 8004bae:	1882      	adds	r2, r0, r2
 8004bb0:	4290      	cmp	r0, r2
 8004bb2:	d101      	bne.n	8004bb8 <memchr+0xc>
 8004bb4:	2000      	movs	r0, #0
 8004bb6:	4770      	bx	lr
 8004bb8:	7803      	ldrb	r3, [r0, #0]
 8004bba:	428b      	cmp	r3, r1
 8004bbc:	d0fb      	beq.n	8004bb6 <memchr+0xa>
 8004bbe:	3001      	adds	r0, #1
 8004bc0:	e7f6      	b.n	8004bb0 <memchr+0x4>

08004bc2 <memcpy>:
 8004bc2:	2300      	movs	r3, #0
 8004bc4:	b510      	push	{r4, lr}
 8004bc6:	429a      	cmp	r2, r3
 8004bc8:	d100      	bne.n	8004bcc <memcpy+0xa>
 8004bca:	bd10      	pop	{r4, pc}
 8004bcc:	5ccc      	ldrb	r4, [r1, r3]
 8004bce:	54c4      	strb	r4, [r0, r3]
 8004bd0:	3301      	adds	r3, #1
 8004bd2:	e7f8      	b.n	8004bc6 <memcpy+0x4>

08004bd4 <memmove>:
 8004bd4:	b510      	push	{r4, lr}
 8004bd6:	4288      	cmp	r0, r1
 8004bd8:	d902      	bls.n	8004be0 <memmove+0xc>
 8004bda:	188b      	adds	r3, r1, r2
 8004bdc:	4298      	cmp	r0, r3
 8004bde:	d303      	bcc.n	8004be8 <memmove+0x14>
 8004be0:	2300      	movs	r3, #0
 8004be2:	e007      	b.n	8004bf4 <memmove+0x20>
 8004be4:	5c8b      	ldrb	r3, [r1, r2]
 8004be6:	5483      	strb	r3, [r0, r2]
 8004be8:	3a01      	subs	r2, #1
 8004bea:	d2fb      	bcs.n	8004be4 <memmove+0x10>
 8004bec:	bd10      	pop	{r4, pc}
 8004bee:	5ccc      	ldrb	r4, [r1, r3]
 8004bf0:	54c4      	strb	r4, [r0, r3]
 8004bf2:	3301      	adds	r3, #1
 8004bf4:	429a      	cmp	r2, r3
 8004bf6:	d1fa      	bne.n	8004bee <memmove+0x1a>
 8004bf8:	e7f8      	b.n	8004bec <memmove+0x18>
	...

08004bfc <_free_r>:
 8004bfc:	b570      	push	{r4, r5, r6, lr}
 8004bfe:	0005      	movs	r5, r0
 8004c00:	2900      	cmp	r1, #0
 8004c02:	d010      	beq.n	8004c26 <_free_r+0x2a>
 8004c04:	1f0c      	subs	r4, r1, #4
 8004c06:	6823      	ldr	r3, [r4, #0]
 8004c08:	2b00      	cmp	r3, #0
 8004c0a:	da00      	bge.n	8004c0e <_free_r+0x12>
 8004c0c:	18e4      	adds	r4, r4, r3
 8004c0e:	0028      	movs	r0, r5
 8004c10:	f000 f918 	bl	8004e44 <__malloc_lock>
 8004c14:	4a1d      	ldr	r2, [pc, #116]	; (8004c8c <_free_r+0x90>)
 8004c16:	6813      	ldr	r3, [r2, #0]
 8004c18:	2b00      	cmp	r3, #0
 8004c1a:	d105      	bne.n	8004c28 <_free_r+0x2c>
 8004c1c:	6063      	str	r3, [r4, #4]
 8004c1e:	6014      	str	r4, [r2, #0]
 8004c20:	0028      	movs	r0, r5
 8004c22:	f000 f917 	bl	8004e54 <__malloc_unlock>
 8004c26:	bd70      	pop	{r4, r5, r6, pc}
 8004c28:	42a3      	cmp	r3, r4
 8004c2a:	d908      	bls.n	8004c3e <_free_r+0x42>
 8004c2c:	6821      	ldr	r1, [r4, #0]
 8004c2e:	1860      	adds	r0, r4, r1
 8004c30:	4283      	cmp	r3, r0
 8004c32:	d1f3      	bne.n	8004c1c <_free_r+0x20>
 8004c34:	6818      	ldr	r0, [r3, #0]
 8004c36:	685b      	ldr	r3, [r3, #4]
 8004c38:	1841      	adds	r1, r0, r1
 8004c3a:	6021      	str	r1, [r4, #0]
 8004c3c:	e7ee      	b.n	8004c1c <_free_r+0x20>
 8004c3e:	001a      	movs	r2, r3
 8004c40:	685b      	ldr	r3, [r3, #4]
 8004c42:	2b00      	cmp	r3, #0
 8004c44:	d001      	beq.n	8004c4a <_free_r+0x4e>
 8004c46:	42a3      	cmp	r3, r4
 8004c48:	d9f9      	bls.n	8004c3e <_free_r+0x42>
 8004c4a:	6811      	ldr	r1, [r2, #0]
 8004c4c:	1850      	adds	r0, r2, r1
 8004c4e:	42a0      	cmp	r0, r4
 8004c50:	d10b      	bne.n	8004c6a <_free_r+0x6e>
 8004c52:	6820      	ldr	r0, [r4, #0]
 8004c54:	1809      	adds	r1, r1, r0
 8004c56:	1850      	adds	r0, r2, r1
 8004c58:	6011      	str	r1, [r2, #0]
 8004c5a:	4283      	cmp	r3, r0
 8004c5c:	d1e0      	bne.n	8004c20 <_free_r+0x24>
 8004c5e:	6818      	ldr	r0, [r3, #0]
 8004c60:	685b      	ldr	r3, [r3, #4]
 8004c62:	1841      	adds	r1, r0, r1
 8004c64:	6011      	str	r1, [r2, #0]
 8004c66:	6053      	str	r3, [r2, #4]
 8004c68:	e7da      	b.n	8004c20 <_free_r+0x24>
 8004c6a:	42a0      	cmp	r0, r4
 8004c6c:	d902      	bls.n	8004c74 <_free_r+0x78>
 8004c6e:	230c      	movs	r3, #12
 8004c70:	602b      	str	r3, [r5, #0]
 8004c72:	e7d5      	b.n	8004c20 <_free_r+0x24>
 8004c74:	6821      	ldr	r1, [r4, #0]
 8004c76:	1860      	adds	r0, r4, r1
 8004c78:	4283      	cmp	r3, r0
 8004c7a:	d103      	bne.n	8004c84 <_free_r+0x88>
 8004c7c:	6818      	ldr	r0, [r3, #0]
 8004c7e:	685b      	ldr	r3, [r3, #4]
 8004c80:	1841      	adds	r1, r0, r1
 8004c82:	6021      	str	r1, [r4, #0]
 8004c84:	6063      	str	r3, [r4, #4]
 8004c86:	6054      	str	r4, [r2, #4]
 8004c88:	e7ca      	b.n	8004c20 <_free_r+0x24>
 8004c8a:	46c0      	nop			; (mov r8, r8)
 8004c8c:	20000240 	.word	0x20000240

08004c90 <sbrk_aligned>:
 8004c90:	b570      	push	{r4, r5, r6, lr}
 8004c92:	4e0f      	ldr	r6, [pc, #60]	; (8004cd0 <sbrk_aligned+0x40>)
 8004c94:	000d      	movs	r5, r1
 8004c96:	6831      	ldr	r1, [r6, #0]
 8004c98:	0004      	movs	r4, r0
 8004c9a:	2900      	cmp	r1, #0
 8004c9c:	d102      	bne.n	8004ca4 <sbrk_aligned+0x14>
 8004c9e:	f000 f8bf 	bl	8004e20 <_sbrk_r>
 8004ca2:	6030      	str	r0, [r6, #0]
 8004ca4:	0029      	movs	r1, r5
 8004ca6:	0020      	movs	r0, r4
 8004ca8:	f000 f8ba 	bl	8004e20 <_sbrk_r>
 8004cac:	1c43      	adds	r3, r0, #1
 8004cae:	d00a      	beq.n	8004cc6 <sbrk_aligned+0x36>
 8004cb0:	2303      	movs	r3, #3
 8004cb2:	1cc5      	adds	r5, r0, #3
 8004cb4:	439d      	bics	r5, r3
 8004cb6:	42a8      	cmp	r0, r5
 8004cb8:	d007      	beq.n	8004cca <sbrk_aligned+0x3a>
 8004cba:	1a29      	subs	r1, r5, r0
 8004cbc:	0020      	movs	r0, r4
 8004cbe:	f000 f8af 	bl	8004e20 <_sbrk_r>
 8004cc2:	1c43      	adds	r3, r0, #1
 8004cc4:	d101      	bne.n	8004cca <sbrk_aligned+0x3a>
 8004cc6:	2501      	movs	r5, #1
 8004cc8:	426d      	negs	r5, r5
 8004cca:	0028      	movs	r0, r5
 8004ccc:	bd70      	pop	{r4, r5, r6, pc}
 8004cce:	46c0      	nop			; (mov r8, r8)
 8004cd0:	20000244 	.word	0x20000244

08004cd4 <_malloc_r>:
 8004cd4:	b5f7      	push	{r0, r1, r2, r4, r5, r6, r7, lr}
 8004cd6:	2203      	movs	r2, #3
 8004cd8:	1ccb      	adds	r3, r1, #3
 8004cda:	4393      	bics	r3, r2
 8004cdc:	3308      	adds	r3, #8
 8004cde:	0006      	movs	r6, r0
 8004ce0:	001f      	movs	r7, r3
 8004ce2:	2b0c      	cmp	r3, #12
 8004ce4:	d232      	bcs.n	8004d4c <_malloc_r+0x78>
 8004ce6:	270c      	movs	r7, #12
 8004ce8:	42b9      	cmp	r1, r7
 8004cea:	d831      	bhi.n	8004d50 <_malloc_r+0x7c>
 8004cec:	0030      	movs	r0, r6
 8004cee:	f000 f8a9 	bl	8004e44 <__malloc_lock>
 8004cf2:	4d32      	ldr	r5, [pc, #200]	; (8004dbc <_malloc_r+0xe8>)
 8004cf4:	682b      	ldr	r3, [r5, #0]
 8004cf6:	001c      	movs	r4, r3
 8004cf8:	2c00      	cmp	r4, #0
 8004cfa:	d12e      	bne.n	8004d5a <_malloc_r+0x86>
 8004cfc:	0039      	movs	r1, r7
 8004cfe:	0030      	movs	r0, r6
 8004d00:	f7ff ffc6 	bl	8004c90 <sbrk_aligned>
 8004d04:	0004      	movs	r4, r0
 8004d06:	1c43      	adds	r3, r0, #1
 8004d08:	d11e      	bne.n	8004d48 <_malloc_r+0x74>
 8004d0a:	682c      	ldr	r4, [r5, #0]
 8004d0c:	0025      	movs	r5, r4
 8004d0e:	2d00      	cmp	r5, #0
 8004d10:	d14a      	bne.n	8004da8 <_malloc_r+0xd4>
 8004d12:	6823      	ldr	r3, [r4, #0]
 8004d14:	0029      	movs	r1, r5
 8004d16:	18e3      	adds	r3, r4, r3
 8004d18:	0030      	movs	r0, r6
 8004d1a:	9301      	str	r3, [sp, #4]
 8004d1c:	f000 f880 	bl	8004e20 <_sbrk_r>
 8004d20:	9b01      	ldr	r3, [sp, #4]
 8004d22:	4283      	cmp	r3, r0
 8004d24:	d143      	bne.n	8004dae <_malloc_r+0xda>
 8004d26:	6823      	ldr	r3, [r4, #0]
 8004d28:	3703      	adds	r7, #3
 8004d2a:	1aff      	subs	r7, r7, r3
 8004d2c:	2303      	movs	r3, #3
 8004d2e:	439f      	bics	r7, r3
 8004d30:	3708      	adds	r7, #8
 8004d32:	2f0c      	cmp	r7, #12
 8004d34:	d200      	bcs.n	8004d38 <_malloc_r+0x64>
 8004d36:	270c      	movs	r7, #12
 8004d38:	0039      	movs	r1, r7
 8004d3a:	0030      	movs	r0, r6
 8004d3c:	f7ff ffa8 	bl	8004c90 <sbrk_aligned>
 8004d40:	1c43      	adds	r3, r0, #1
 8004d42:	d034      	beq.n	8004dae <_malloc_r+0xda>
 8004d44:	6823      	ldr	r3, [r4, #0]
 8004d46:	19df      	adds	r7, r3, r7
 8004d48:	6027      	str	r7, [r4, #0]
 8004d4a:	e013      	b.n	8004d74 <_malloc_r+0xa0>
 8004d4c:	2b00      	cmp	r3, #0
 8004d4e:	dacb      	bge.n	8004ce8 <_malloc_r+0x14>
 8004d50:	230c      	movs	r3, #12
 8004d52:	2500      	movs	r5, #0
 8004d54:	6033      	str	r3, [r6, #0]
 8004d56:	0028      	movs	r0, r5
 8004d58:	bdfe      	pop	{r1, r2, r3, r4, r5, r6, r7, pc}
 8004d5a:	6822      	ldr	r2, [r4, #0]
 8004d5c:	1bd1      	subs	r1, r2, r7
 8004d5e:	d420      	bmi.n	8004da2 <_malloc_r+0xce>
 8004d60:	290b      	cmp	r1, #11
 8004d62:	d917      	bls.n	8004d94 <_malloc_r+0xc0>
 8004d64:	19e2      	adds	r2, r4, r7
 8004d66:	6027      	str	r7, [r4, #0]
 8004d68:	42a3      	cmp	r3, r4
 8004d6a:	d111      	bne.n	8004d90 <_malloc_r+0xbc>
 8004d6c:	602a      	str	r2, [r5, #0]
 8004d6e:	6863      	ldr	r3, [r4, #4]
 8004d70:	6011      	str	r1, [r2, #0]
 8004d72:	6053      	str	r3, [r2, #4]
 8004d74:	0030      	movs	r0, r6
 8004d76:	0025      	movs	r5, r4
 8004d78:	f000 f86c 	bl	8004e54 <__malloc_unlock>
 8004d7c:	2207      	movs	r2, #7
 8004d7e:	350b      	adds	r5, #11
 8004d80:	1d23      	adds	r3, r4, #4
 8004d82:	4395      	bics	r5, r2
 8004d84:	1aea      	subs	r2, r5, r3
 8004d86:	429d      	cmp	r5, r3
 8004d88:	d0e5      	beq.n	8004d56 <_malloc_r+0x82>
 8004d8a:	1b5b      	subs	r3, r3, r5
 8004d8c:	50a3      	str	r3, [r4, r2]
 8004d8e:	e7e2      	b.n	8004d56 <_malloc_r+0x82>
 8004d90:	605a      	str	r2, [r3, #4]
 8004d92:	e7ec      	b.n	8004d6e <_malloc_r+0x9a>
 8004d94:	6862      	ldr	r2, [r4, #4]
 8004d96:	42a3      	cmp	r3, r4
 8004d98:	d101      	bne.n	8004d9e <_malloc_r+0xca>
 8004d9a:	602a      	str	r2, [r5, #0]
 8004d9c:	e7ea      	b.n	8004d74 <_malloc_r+0xa0>
 8004d9e:	605a      	str	r2, [r3, #4]
 8004da0:	e7e8      	b.n	8004d74 <_malloc_r+0xa0>
 8004da2:	0023      	movs	r3, r4
 8004da4:	6864      	ldr	r4, [r4, #4]
 8004da6:	e7a7      	b.n	8004cf8 <_malloc_r+0x24>
 8004da8:	002c      	movs	r4, r5
 8004daa:	686d      	ldr	r5, [r5, #4]
 8004dac:	e7af      	b.n	8004d0e <_malloc_r+0x3a>
 8004dae:	230c      	movs	r3, #12
 8004db0:	0030      	movs	r0, r6
 8004db2:	6033      	str	r3, [r6, #0]
 8004db4:	f000 f84e 	bl	8004e54 <__malloc_unlock>
 8004db8:	e7cd      	b.n	8004d56 <_malloc_r+0x82>
 8004dba:	46c0      	nop			; (mov r8, r8)
 8004dbc:	20000240 	.word	0x20000240

08004dc0 <_realloc_r>:
 8004dc0:	b5f7      	push	{r0, r1, r2, r4, r5, r6, r7, lr}
 8004dc2:	0007      	movs	r7, r0
 8004dc4:	000e      	movs	r6, r1
 8004dc6:	0014      	movs	r4, r2
 8004dc8:	2900      	cmp	r1, #0
 8004dca:	d105      	bne.n	8004dd8 <_realloc_r+0x18>
 8004dcc:	0011      	movs	r1, r2
 8004dce:	f7ff ff81 	bl	8004cd4 <_malloc_r>
 8004dd2:	0005      	movs	r5, r0
 8004dd4:	0028      	movs	r0, r5
 8004dd6:	bdfe      	pop	{r1, r2, r3, r4, r5, r6, r7, pc}
 8004dd8:	2a00      	cmp	r2, #0
 8004dda:	d103      	bne.n	8004de4 <_realloc_r+0x24>
 8004ddc:	f7ff ff0e 	bl	8004bfc <_free_r>
 8004de0:	0025      	movs	r5, r4
 8004de2:	e7f7      	b.n	8004dd4 <_realloc_r+0x14>
 8004de4:	f000 f83e 	bl	8004e64 <_malloc_usable_size_r>
 8004de8:	9001      	str	r0, [sp, #4]
 8004dea:	4284      	cmp	r4, r0
 8004dec:	d803      	bhi.n	8004df6 <_realloc_r+0x36>
 8004dee:	0035      	movs	r5, r6
 8004df0:	0843      	lsrs	r3, r0, #1
 8004df2:	42a3      	cmp	r3, r4
 8004df4:	d3ee      	bcc.n	8004dd4 <_realloc_r+0x14>
 8004df6:	0021      	movs	r1, r4
 8004df8:	0038      	movs	r0, r7
 8004dfa:	f7ff ff6b 	bl	8004cd4 <_malloc_r>
 8004dfe:	1e05      	subs	r5, r0, #0
 8004e00:	d0e8      	beq.n	8004dd4 <_realloc_r+0x14>
 8004e02:	9b01      	ldr	r3, [sp, #4]
 8004e04:	0022      	movs	r2, r4
 8004e06:	429c      	cmp	r4, r3
 8004e08:	d900      	bls.n	8004e0c <_realloc_r+0x4c>
 8004e0a:	001a      	movs	r2, r3
 8004e0c:	0031      	movs	r1, r6
 8004e0e:	0028      	movs	r0, r5
 8004e10:	f7ff fed7 	bl	8004bc2 <memcpy>
 8004e14:	0031      	movs	r1, r6
 8004e16:	0038      	movs	r0, r7
 8004e18:	f7ff fef0 	bl	8004bfc <_free_r>
 8004e1c:	e7da      	b.n	8004dd4 <_realloc_r+0x14>
	...

08004e20 <_sbrk_r>:
 8004e20:	2300      	movs	r3, #0
 8004e22:	b570      	push	{r4, r5, r6, lr}
 8004e24:	4d06      	ldr	r5, [pc, #24]	; (8004e40 <_sbrk_r+0x20>)
 8004e26:	0004      	movs	r4, r0
 8004e28:	0008      	movs	r0, r1
 8004e2a:	602b      	str	r3, [r5, #0]
 8004e2c:	f7fb fe8c 	bl	8000b48 <_sbrk>
 8004e30:	1c43      	adds	r3, r0, #1
 8004e32:	d103      	bne.n	8004e3c <_sbrk_r+0x1c>
 8004e34:	682b      	ldr	r3, [r5, #0]
 8004e36:	2b00      	cmp	r3, #0
 8004e38:	d000      	beq.n	8004e3c <_sbrk_r+0x1c>
 8004e3a:	6023      	str	r3, [r4, #0]
 8004e3c:	bd70      	pop	{r4, r5, r6, pc}
 8004e3e:	46c0      	nop			; (mov r8, r8)
 8004e40:	20000248 	.word	0x20000248

08004e44 <__malloc_lock>:
 8004e44:	b510      	push	{r4, lr}
 8004e46:	4802      	ldr	r0, [pc, #8]	; (8004e50 <__malloc_lock+0xc>)
 8004e48:	f000 f814 	bl	8004e74 <__retarget_lock_acquire_recursive>
 8004e4c:	bd10      	pop	{r4, pc}
 8004e4e:	46c0      	nop			; (mov r8, r8)
 8004e50:	2000024c 	.word	0x2000024c

08004e54 <__malloc_unlock>:
 8004e54:	b510      	push	{r4, lr}
 8004e56:	4802      	ldr	r0, [pc, #8]	; (8004e60 <__malloc_unlock+0xc>)
 8004e58:	f000 f80d 	bl	8004e76 <__retarget_lock_release_recursive>
 8004e5c:	bd10      	pop	{r4, pc}
 8004e5e:	46c0      	nop			; (mov r8, r8)
 8004e60:	2000024c 	.word	0x2000024c

08004e64 <_malloc_usable_size_r>:
 8004e64:	1f0b      	subs	r3, r1, #4
 8004e66:	681b      	ldr	r3, [r3, #0]
 8004e68:	1f18      	subs	r0, r3, #4
 8004e6a:	2b00      	cmp	r3, #0
 8004e6c:	da01      	bge.n	8004e72 <_malloc_usable_size_r+0xe>
 8004e6e:	580b      	ldr	r3, [r1, r0]
 8004e70:	18c0      	adds	r0, r0, r3
 8004e72:	4770      	bx	lr

08004e74 <__retarget_lock_acquire_recursive>:
 8004e74:	4770      	bx	lr

08004e76 <__retarget_lock_release_recursive>:
 8004e76:	4770      	bx	lr

08004e78 <_init>:
 8004e78:	b5f8      	push	{r3, r4, r5, r6, r7, lr}
 8004e7a:	46c0      	nop			; (mov r8, r8)
 8004e7c:	bcf8      	pop	{r3, r4, r5, r6, r7}
 8004e7e:	bc08      	pop	{r3}
 8004e80:	469e      	mov	lr, r3
 8004e82:	4770      	bx	lr

08004e84 <_fini>:
 8004e84:	b5f8      	push	{r3, r4, r5, r6, r7, lr}
 8004e86:	46c0      	nop			; (mov r8, r8)
 8004e88:	bcf8      	pop	{r3, r4, r5, r6, r7}
 8004e8a:	bc08      	pop	{r3}
 8004e8c:	469e      	mov	lr, r3
 8004e8e:	4770      	bx	lr
